(lp0
(S'cppflags'
p1
ccopy_reg
_reconstructor
p2
(cino.utils
SpaceList
p3
c__builtin__
list
p4
(lp5
S'-mmcu=atmega2560'
p6
aS'-DF_CPU=16000000L'
p7
aS'-DARDUINO=105'
p8
aS'-I/usr/share/arduino/hardware/arduino/cores/arduino'
p9
aS'-ffunction-sections'
p10
aS'-fdata-sections'
p11
aS'-g'
p12
aS'-Os'
p13
aS'-w'
p14
aS'-DHUB_ARDUINO'
p15
aS'-I/usr/share/arduino/hardware/arduino/variants/mega'
p16
aS'-Ilib/Encoder'
p17
aS'-Ilib/Encoder/utility'
p18
aS'-Ilib/CmdMessenger'
p19
aS'-Ilib/CmdMessenger/extras'
p20
aS'-Ilib/CmdMessenger/utility'
p21
aS'-Ilib/CmdMessenger/extras/CSharp'
p22
aS'-Ilib/CmdMessenger/extras/documentation'
p23
aS'-Ilib/CmdMessenger/extras/CSharp/CommandMessengerTests'
p24
aS'-Ilib/CmdMessenger/extras/CSharp/SimpleWatchdog'
p25
aS'-Ilib/CmdMessenger/extras/CSharp/CommandMessenger.Transport.Bluetooth'
p26
aS'-Ilib/CmdMessenger/extras/CSharp/Receive'
p27
aS'-Ilib/CmdMessenger/extras/CSharp/DataLogging'
p28
aS'-Ilib/CmdMessenger/extras/CSharp/CommandMessenger.Transport.Network'
p29
aS'-Ilib/CmdMessenger/extras/CSharp/TemperatureControl'
p30
aS'-Ilib/CmdMessenger/extras/CSharp/Bluetooth'
p31
aS'-Ilib/CmdMessenger/extras/CSharp/SendAndReceiveArguments'
p32
aS'-Ilib/CmdMessenger/extras/CSharp/SendAndReceiveBinaryArguments'
p33
aS'-Ilib/CmdMessenger/extras/CSharp/CommandMessenger'
p34
aS'-Ilib/CmdMessenger/extras/CSharp/CommandMessenger.Transport.Serial'
p35
aS'-Ilib/CmdMessenger/extras/CSharp/SimpleBluetooth'
p36
aS'-Ilib/CmdMessenger/extras/CSharp/ArduinoController'
p37
aS'-Ilib/CmdMessenger/extras/CSharp/ZedGraph'
p38
aS'-Ilib/CmdMessenger/extras/CSharp/SendAndReceive'
p39
aS'-Ilib/CmdMessenger/extras/CSharp/CommandMessengerTests/Tests'
p40
aS'-Ilib/CmdMessenger/extras/CSharp/CommandMessengerTests/Properties'
p41
aS'-Ilib/CmdMessenger/extras/CSharp/SimpleWatchdog/Properties'
p42
aS'-Ilib/CmdMessenger/extras/CSharp/CommandMessenger.Transport.Bluetooth/Properties'
p43
aS'-Ilib/CmdMessenger/extras/CSharp/Receive/Properties'
p44
aS'-Ilib/CmdMessenger/extras/CSharp/DataLogging/Properties'
p45
aS'-Ilib/CmdMessenger/extras/CSharp/CommandMessenger.Transport.Network/Properties'
p46
aS'-Ilib/CmdMessenger/extras/CSharp/TemperatureControl/Properties'
p47
aS'-Ilib/CmdMessenger/extras/CSharp/SendAndReceiveArguments/Properties'
p48
aS'-Ilib/CmdMessenger/extras/CSharp/SendAndReceiveBinaryArguments/Properties'
p49
aS'-Ilib/CmdMessenger/extras/CSharp/CommandMessenger/Transport'
p50
aS'-Ilib/CmdMessenger/extras/CSharp/CommandMessenger/Queue'
p51
aS'-Ilib/CmdMessenger/extras/CSharp/CommandMessenger/Properties'
p52
aS'-Ilib/CmdMessenger/extras/CSharp/CommandMessenger.Transport.Serial/Properties'
p53
aS'-Ilib/CmdMessenger/extras/CSharp/SimpleBluetooth/Properties'
p54
aS'-Ilib/CmdMessenger/extras/CSharp/ArduinoController/Properties'
p55
aS'-Ilib/CmdMessenger/extras/CSharp/ZedGraph/ja'
p56
aS'-Ilib/CmdMessenger/extras/CSharp/ZedGraph/sv'
p57
aS'-Ilib/CmdMessenger/extras/CSharp/ZedGraph/ru'
p58
aS'-Ilib/CmdMessenger/extras/CSharp/ZedGraph/de'
p59
aS'-Ilib/CmdMessenger/extras/CSharp/ZedGraph/it'
p60
aS'-Ilib/CmdMessenger/extras/CSharp/ZedGraph/fr'
p61
aS'-Ilib/CmdMessenger/extras/CSharp/ZedGraph/hu'
p62
aS'-Ilib/CmdMessenger/extras/CSharp/ZedGraph/es'
p63
aS'-Ilib/CmdMessenger/extras/CSharp/ZedGraph/zh-cn'
p64
aS'-Ilib/CmdMessenger/extras/CSharp/ZedGraph/sk'
p65
aS'-Ilib/CmdMessenger/extras/CSharp/ZedGraph/zh-tw'
p66
aS'-Ilib/CmdMessenger/extras/CSharp/ZedGraph/pt'
p67
aS'-Ilib/CmdMessenger/extras/CSharp/ZedGraph/tr'
p68
aS'-Ilib/CmdMessenger/extras/CSharp/SendAndReceive/Properties'
p69
aS'-Ilib/CmdMessenger/extras/documentation/PC'
p70
aS'-Ilib/CmdMessenger/extras/documentation/Arduino'
p71
aS'-Ilib/CmdMessenger/extras/documentation/PC/html'
p72
aS'-Ilib/CmdMessenger/extras/documentation/Arduino/html'
p73
aS'-Ilib/CmdMessenger/extras/CSharp/CommandMessengerTests/Tests'
p74
aS'-Ilib/CmdMessenger/extras/CSharp/CommandMessengerTests/Properties'
p75
aS'-Ilib/CmdMessenger/extras/CSharp/SimpleWatchdog/Properties'
p76
aS'-Ilib/CmdMessenger/extras/CSharp/CommandMessenger.Transport.Bluetooth/Properties'
p77
aS'-Ilib/CmdMessenger/extras/CSharp/Receive/Properties'
p78
aS'-Ilib/CmdMessenger/extras/CSharp/DataLogging/Properties'
p79
aS'-Ilib/CmdMessenger/extras/CSharp/CommandMessenger.Transport.Network/Properties'
p80
aS'-Ilib/CmdMessenger/extras/CSharp/TemperatureControl/Properties'
p81
aS'-Ilib/CmdMessenger/extras/CSharp/SendAndReceiveArguments/Properties'
p82
aS'-Ilib/CmdMessenger/extras/CSharp/SendAndReceiveBinaryArguments/Properties'
p83
aS'-Ilib/CmdMessenger/extras/CSharp/CommandMessenger/Transport'
p84
aS'-Ilib/CmdMessenger/extras/CSharp/CommandMessenger/Queue'
p85
aS'-Ilib/CmdMessenger/extras/CSharp/CommandMessenger/Properties'
p86
aS'-Ilib/CmdMessenger/extras/CSharp/CommandMessenger.Transport.Serial/Properties'
p87
aS'-Ilib/CmdMessenger/extras/CSharp/SimpleBluetooth/Properties'
p88
aS'-Ilib/CmdMessenger/extras/CSharp/ArduinoController/Properties'
p89
aS'-Ilib/CmdMessenger/extras/CSharp/ZedGraph/ja'
p90
aS'-Ilib/CmdMessenger/extras/CSharp/ZedGraph/sv'
p91
aS'-Ilib/CmdMessenger/extras/CSharp/ZedGraph/ru'
p92
aS'-Ilib/CmdMessenger/extras/CSharp/ZedGraph/de'
p93
aS'-Ilib/CmdMessenger/extras/CSharp/ZedGraph/it'
p94
aS'-Ilib/CmdMessenger/extras/CSharp/ZedGraph/fr'
p95
aS'-Ilib/CmdMessenger/extras/CSharp/ZedGraph/hu'
p96
aS'-Ilib/CmdMessenger/extras/CSharp/ZedGraph/es'
p97
aS'-Ilib/CmdMessenger/extras/CSharp/ZedGraph/zh-cn'
p98
aS'-Ilib/CmdMessenger/extras/CSharp/ZedGraph/sk'
p99
aS'-Ilib/CmdMessenger/extras/CSharp/ZedGraph/zh-tw'
p100
aS'-Ilib/CmdMessenger/extras/CSharp/ZedGraph/pt'
p101
aS'-Ilib/CmdMessenger/extras/CSharp/ZedGraph/tr'
p102
aS'-Ilib/CmdMessenger/extras/CSharp/SendAndReceive/Properties'
p103
aS'-Ilib/CmdMessenger/extras/documentation/PC/html'
p104
aS'-Ilib/CmdMessenger/extras/documentation/Arduino/html'
p105
aS'-Ilib/CmdMessenger/extras/CSharp/CommandMessengerTests'
p106
aS'-Ilib/CmdMessenger/extras/CSharp/SimpleWatchdog'
p107
aS'-Ilib/CmdMessenger/extras/CSharp/CommandMessenger.Transport.Bluetooth'
p108
aS'-Ilib/CmdMessenger/extras/CSharp/Receive'
p109
aS'-Ilib/CmdMessenger/extras/CSharp/DataLogging'
p110
aS'-Ilib/CmdMessenger/extras/CSharp/CommandMessenger.Transport.Network'
p111
aS'-Ilib/CmdMessenger/extras/CSharp/TemperatureControl'
p112
aS'-Ilib/CmdMessenger/extras/CSharp/Bluetooth'
p113
aS'-Ilib/CmdMessenger/extras/CSharp/SendAndReceiveArguments'
p114
aS'-Ilib/CmdMessenger/extras/CSharp/SendAndReceiveBinaryArguments'
p115
aS'-Ilib/CmdMessenger/extras/CSharp/CommandMessenger'
p116
aS'-Ilib/CmdMessenger/extras/CSharp/CommandMessenger.Transport.Serial'
p117
aS'-Ilib/CmdMessenger/extras/CSharp/SimpleBluetooth'
p118
aS'-Ilib/CmdMessenger/extras/CSharp/ArduinoController'
p119
aS'-Ilib/CmdMessenger/extras/CSharp/ZedGraph'
p120
aS'-Ilib/CmdMessenger/extras/CSharp/SendAndReceive'
p121
aS'-Ilib/CmdMessenger/extras/CSharp/CommandMessengerTests/Tests'
p122
aS'-Ilib/CmdMessenger/extras/CSharp/CommandMessengerTests/Properties'
p123
aS'-Ilib/CmdMessenger/extras/CSharp/SimpleWatchdog/Properties'
p124
aS'-Ilib/CmdMessenger/extras/CSharp/CommandMessenger.Transport.Bluetooth/Properties'
p125
aS'-Ilib/CmdMessenger/extras/CSharp/Receive/Properties'
p126
aS'-Ilib/CmdMessenger/extras/CSharp/DataLogging/Properties'
p127
aS'-Ilib/CmdMessenger/extras/CSharp/CommandMessenger.Transport.Network/Properties'
p128
aS'-Ilib/CmdMessenger/extras/CSharp/TemperatureControl/Properties'
p129
aS'-Ilib/CmdMessenger/extras/CSharp/SendAndReceiveArguments/Properties'
p130
aS'-Ilib/CmdMessenger/extras/CSharp/SendAndReceiveBinaryArguments/Properties'
p131
aS'-Ilib/CmdMessenger/extras/CSharp/CommandMessenger/Transport'
p132
aS'-Ilib/CmdMessenger/extras/CSharp/CommandMessenger/Queue'
p133
aS'-Ilib/CmdMessenger/extras/CSharp/CommandMessenger/Properties'
p134
aS'-Ilib/CmdMessenger/extras/CSharp/CommandMessenger.Transport.Serial/Properties'
p135
aS'-Ilib/CmdMessenger/extras/CSharp/SimpleBluetooth/Properties'
p136
aS'-Ilib/CmdMessenger/extras/CSharp/ArduinoController/Properties'
p137
aS'-Ilib/CmdMessenger/extras/CSharp/ZedGraph/ja'
p138
aS'-Ilib/CmdMessenger/extras/CSharp/ZedGraph/sv'
p139
aS'-Ilib/CmdMessenger/extras/CSharp/ZedGraph/ru'
p140
aS'-Ilib/CmdMessenger/extras/CSharp/ZedGraph/de'
p141
aS'-Ilib/CmdMessenger/extras/CSharp/ZedGraph/it'
p142
aS'-Ilib/CmdMessenger/extras/CSharp/ZedGraph/fr'
p143
aS'-Ilib/CmdMessenger/extras/CSharp/ZedGraph/hu'
p144
aS'-Ilib/CmdMessenger/extras/CSharp/ZedGraph/es'
p145
aS'-Ilib/CmdMessenger/extras/CSharp/ZedGraph/zh-cn'
p146
aS'-Ilib/CmdMessenger/extras/CSharp/ZedGraph/sk'
p147
aS'-Ilib/CmdMessenger/extras/CSharp/ZedGraph/zh-tw'
p148
aS'-Ilib/CmdMessenger/extras/CSharp/ZedGraph/pt'
p149
aS'-Ilib/CmdMessenger/extras/CSharp/ZedGraph/tr'
p150
aS'-Ilib/CmdMessenger/extras/CSharp/SendAndReceive/Properties'
p151
aS'-Ilib/CmdMessenger/extras/documentation/PC'
p152
aS'-Ilib/CmdMessenger/extras/documentation/Arduino'
p153
aS'-Ilib/CmdMessenger/extras/documentation/PC/html'
p154
aS'-Ilib/CmdMessenger/extras/documentation/Arduino/html'
p155
aS'-Ilib/CmdMessenger/extras/CSharp/CommandMessengerTests/Tests'
p156
aS'-Ilib/CmdMessenger/extras/CSharp/CommandMessengerTests/Properties'
p157
aS'-Ilib/CmdMessenger/extras/CSharp/SimpleWatchdog/Properties'
p158
aS'-Ilib/CmdMessenger/extras/CSharp/CommandMessenger.Transport.Bluetooth/Properties'
p159
aS'-Ilib/CmdMessenger/extras/CSharp/Receive/Properties'
p160
aS'-Ilib/CmdMessenger/extras/CSharp/DataLogging/Properties'
p161
aS'-Ilib/CmdMessenger/extras/CSharp/CommandMessenger.Transport.Network/Properties'
p162
aS'-Ilib/CmdMessenger/extras/CSharp/TemperatureControl/Properties'
p163
aS'-Ilib/CmdMessenger/extras/CSharp/SendAndReceiveArguments/Properties'
p164
aS'-Ilib/CmdMessenger/extras/CSharp/SendAndReceiveBinaryArguments/Properties'
p165
aS'-Ilib/CmdMessenger/extras/CSharp/CommandMessenger/Transport'
p166
aS'-Ilib/CmdMessenger/extras/CSharp/CommandMessenger/Queue'
p167
aS'-Ilib/CmdMessenger/extras/CSharp/CommandMessenger/Properties'
p168
aS'-Ilib/CmdMessenger/extras/CSharp/CommandMessenger.Transport.Serial/Properties'
p169
aS'-Ilib/CmdMessenger/extras/CSharp/SimpleBluetooth/Properties'
p170
aS'-Ilib/CmdMessenger/extras/CSharp/ArduinoController/Properties'
p171
aS'-Ilib/CmdMessenger/extras/CSharp/ZedGraph/ja'
p172
aS'-Ilib/CmdMessenger/extras/CSharp/ZedGraph/sv'
p173
aS'-Ilib/CmdMessenger/extras/CSharp/ZedGraph/ru'
p174
aS'-Ilib/CmdMessenger/extras/CSharp/ZedGraph/de'
p175
aS'-Ilib/CmdMessenger/extras/CSharp/ZedGraph/it'
p176
aS'-Ilib/CmdMessenger/extras/CSharp/ZedGraph/fr'
p177
aS'-Ilib/CmdMessenger/extras/CSharp/ZedGraph/hu'
p178
aS'-Ilib/CmdMessenger/extras/CSharp/ZedGraph/es'
p179
aS'-Ilib/CmdMessenger/extras/CSharp/ZedGraph/zh-cn'
p180
aS'-Ilib/CmdMessenger/extras/CSharp/ZedGraph/sk'
p181
aS'-Ilib/CmdMessenger/extras/CSharp/ZedGraph/zh-tw'
p182
aS'-Ilib/CmdMessenger/extras/CSharp/ZedGraph/pt'
p183
aS'-Ilib/CmdMessenger/extras/CSharp/ZedGraph/tr'
p184
aS'-Ilib/CmdMessenger/extras/CSharp/SendAndReceive/Properties'
p185
aS'-Ilib/CmdMessenger/extras/documentation/PC/html'
p186
aS'-Ilib/CmdMessenger/extras/documentation/Arduino/html'
p187
aS'-Ilib/CmdMessenger/extras/CSharp/CommandMessengerTests/Tests'
p188
aS'-Ilib/CmdMessenger/extras/CSharp/CommandMessengerTests/Properties'
p189
aS'-Ilib/CmdMessenger/extras/CSharp/SimpleWatchdog/Properties'
p190
aS'-Ilib/CmdMessenger/extras/CSharp/CommandMessenger.Transport.Bluetooth/Properties'
p191
aS'-Ilib/CmdMessenger/extras/CSharp/Receive/Properties'
p192
aS'-Ilib/CmdMessenger/extras/CSharp/DataLogging/Properties'
p193
aS'-Ilib/CmdMessenger/extras/CSharp/CommandMessenger.Transport.Network/Properties'
p194
aS'-Ilib/CmdMessenger/extras/CSharp/TemperatureControl/Properties'
p195
aS'-Ilib/CmdMessenger/extras/CSharp/SendAndReceiveArguments/Properties'
p196
aS'-Ilib/CmdMessenger/extras/CSharp/SendAndReceiveBinaryArguments/Properties'
p197
aS'-Ilib/CmdMessenger/extras/CSharp/CommandMessenger/Transport'
p198
aS'-Ilib/CmdMessenger/extras/CSharp/CommandMessenger/Queue'
p199
aS'-Ilib/CmdMessenger/extras/CSharp/CommandMessenger/Properties'
p200
aS'-Ilib/CmdMessenger/extras/CSharp/CommandMessenger.Transport.Serial/Properties'
p201
aS'-Ilib/CmdMessenger/extras/CSharp/SimpleBluetooth/Properties'
p202
aS'-Ilib/CmdMessenger/extras/CSharp/ArduinoController/Properties'
p203
aS'-Ilib/CmdMessenger/extras/CSharp/ZedGraph/ja'
p204
aS'-Ilib/CmdMessenger/extras/CSharp/ZedGraph/sv'
p205
aS'-Ilib/CmdMessenger/extras/CSharp/ZedGraph/ru'
p206
aS'-Ilib/CmdMessenger/extras/CSharp/ZedGraph/de'
p207
aS'-Ilib/CmdMessenger/extras/CSharp/ZedGraph/it'
p208
aS'-Ilib/CmdMessenger/extras/CSharp/ZedGraph/fr'
p209
aS'-Ilib/CmdMessenger/extras/CSharp/ZedGraph/hu'
p210
aS'-Ilib/CmdMessenger/extras/CSharp/ZedGraph/es'
p211
aS'-Ilib/CmdMessenger/extras/CSharp/ZedGraph/zh-cn'
p212
aS'-Ilib/CmdMessenger/extras/CSharp/ZedGraph/sk'
p213
aS'-Ilib/CmdMessenger/extras/CSharp/ZedGraph/zh-tw'
p214
aS'-Ilib/CmdMessenger/extras/CSharp/ZedGraph/pt'
p215
aS'-Ilib/CmdMessenger/extras/CSharp/ZedGraph/tr'
p216
aS'-Ilib/CmdMessenger/extras/CSharp/SendAndReceive/Properties'
p217
aS'-Ilib/CmdMessenger/extras/documentation/PC/html'
p218
aS'-Ilib/CmdMessenger/extras/documentation/Arduino/html'
p219
aS'-Ilib/DigiPotX9Cxxx'
p220
aS'-I/usr/share/arduino/libraries/SoftwareSerial'
p221
aS'-Ilib/SimpleTimer'
p222
aS'-I/usr/share/arduino/hardware/arduino/cores/arduino'
p223
aS'-I/usr/share/arduino/hardware/arduino/cores/arduino/avr-libc'
p224
atp225
Rp226
tp227
a(S'cxx'
p228
S'/usr/share/arduino/hardware/tools/avr/bin/avr-g++'
p229
tp230
a(S'arduino_libraries_dir'
p231
S'/usr/share/arduino/libraries'
p232
tp233
a(S'avrdude'
p234
S'/usr/share/arduino/hardware/tools/avrdude'
p235
tp236
a(S'ar'
p237
S'/usr/share/arduino/hardware/tools/avr/bin/avr-ar'
p238
tp239
a(S'names'
p240
(dp241
S'cpp'
p242
S'%s.cpp'
p243
sS'obj'
p244
S'%s.o'
p245
sS'lib'
p246
S'lib%s.a'
p247
sS'deps'
p248
S'%s.d'
p249
stp250
a(S'ldflags'
p251
g2
(g3
g4
(lp252
g6
aS'-Wl,-Os'
p253
aS'-Wl,--gc-sections'
p254
atp255
Rp256
tp257
a(S'arduino_lib_version'
p258
g2
(cino.environment
Version
p259
c__builtin__
tuple
p260
(I1
I0
I5
tp261
tp262
Rp263
tp264
a(S'objcopy'
p265
S'/usr/share/arduino/hardware/tools/avr/bin/avr-objcopy'
p266
tp267
a(S'board_models'
p268
cino.environment
BoardModels
p269
((lp270
(lp271
S'uno'
p272
a(dp273
S'bootloader'
p274
(dp275
S'extended_fuses'
p276
S'0xfd'
p277
sS'high_fuses'
p278
S'0xde'
p279
sS'low_fuses'
p280
S'0xff'
p281
sS'lock_bits'
p282
S'0xcf'
p283
sS'file'
p284
S'optiboot_atmega328.hex'
p285
sS'path'
p286
S'optiboot'
p287
sS'unlock_bits'
p288
S'0xff'
p289
ssS'upload'
p290
(dp291
S'protocol'
p292
S'arduino'
p293
sS'maximum_size'
p294
S'32256'
p295
sS'speed'
p296
S'115200'
p297
ssS'build'
p298
(dp299
S'core'
p300
S'arduino'
p301
sS'mcu'
p302
S'atmega328p'
p303
sS'f_cpu'
p304
S'16000000L'
p305
sS'variant'
p306
S'standard'
p307
ssS'name'
p308
S'Arduino Uno'
p309
saa(lp310
S'atmega328'
p311
a(dp312
S'bootloader'
p313
(dp314
S'extended_fuses'
p315
S'0xfd'
p316
sS'high_fuses'
p317
S'0xDA'
p318
sS'low_fuses'
p319
S'0xFF'
p320
sS'lock_bits'
p321
S'0xcf'
p322
sS'file'
p323
S'ATmegaBOOT_168_atmega328.hex'
p324
sS'path'
p325
S'atmega'
p326
sS'unlock_bits'
p327
S'0xff'
p328
ssS'upload'
p329
(dp330
S'protocol'
p331
S'arduino'
p332
sS'maximum_size'
p333
S'30720'
p334
sS'speed'
p335
S'57600'
p336
ssS'build'
p337
(dp338
S'core'
p339
S'arduino'
p340
sS'mcu'
p341
S'atmega328p'
p342
sS'f_cpu'
p343
S'16000000L'
p344
sS'variant'
p345
S'standard'
p346
ssS'name'
p347
S'Arduino Duemilanove w/ ATmega328'
p348
saa(lp349
S'diecimila'
p350
a(dp351
S'bootloader'
p352
(dp353
S'extended_fuses'
p354
S'0xf8'
p355
sS'high_fuses'
p356
S'0xdd'
p357
sS'low_fuses'
p358
S'0xff'
p359
sS'lock_bits'
p360
S'0xcf'
p361
sS'file'
p362
S'ATmegaBOOT_168_diecimila.hex'
p363
sS'path'
p364
S'atmega'
p365
sS'unlock_bits'
p366
S'0xff'
p367
ssS'upload'
p368
(dp369
S'protocol'
p370
S'arduino'
p371
sS'maximum_size'
p372
S'14336'
p373
sS'speed'
p374
S'19200'
p375
ssS'build'
p376
(dp377
S'core'
p378
S'arduino'
p379
sS'mcu'
p380
S'atmega168'
p381
sS'f_cpu'
p382
S'16000000L'
p383
sS'variant'
p384
S'standard'
p385
ssS'name'
p386
S'Arduino Diecimila or Duemilanove w/ ATmega168'
p387
saa(lp388
S'nano328'
p389
a(dp390
S'bootloader'
p391
(dp392
S'extended_fuses'
p393
S'0xfd'
p394
sS'high_fuses'
p395
S'0xDA'
p396
sS'low_fuses'
p397
S'0xFF'
p398
sS'lock_bits'
p399
S'0xcf'
p400
sS'file'
p401
S'ATmegaBOOT_168_atmega328.hex'
p402
sS'path'
p403
S'atmega'
p404
sS'unlock_bits'
p405
S'0xff'
p406
ssS'upload'
p407
(dp408
S'protocol'
p409
S'arduino'
p410
sS'maximum_size'
p411
S'30720'
p412
sS'speed'
p413
S'57600'
p414
ssS'build'
p415
(dp416
S'core'
p417
S'arduino'
p418
sS'mcu'
p419
S'atmega328p'
p420
sS'f_cpu'
p421
S'16000000L'
p422
sS'variant'
p423
S'eightanaloginputs'
p424
ssS'name'
p425
S'Arduino Nano w/ ATmega328'
p426
saa(lp427
S'nano'
p428
a(dp429
S'bootloader'
p430
(dp431
S'extended_fuses'
p432
S'0xf8'
p433
sS'high_fuses'
p434
S'0xdd'
p435
sS'low_fuses'
p436
S'0xff'
p437
sS'lock_bits'
p438
S'0xcf'
p439
sS'file'
p440
S'ATmegaBOOT_168_diecimila.hex'
p441
sS'path'
p442
S'atmega'
p443
sS'unlock_bits'
p444
S'0xff'
p445
ssS'upload'
p446
(dp447
S'protocol'
p448
S'arduino'
p449
sS'maximum_size'
p450
S'14336'
p451
sS'speed'
p452
S'19200'
p453
ssS'build'
p454
(dp455
S'core'
p456
S'arduino'
p457
sS'mcu'
p458
S'atmega168'
p459
sS'f_cpu'
p460
S'16000000L'
p461
sS'variant'
p462
S'eightanaloginputs'
p463
ssS'name'
p464
S'Arduino Nano w/ ATmega168'
p465
saa(lp466
S'mega2560'
p467
a(dp468
S'bootloader'
p469
(dp470
S'extended_fuses'
p471
S'0xFD'
p472
sS'high_fuses'
p473
S'0xD8'
p474
sS'low_fuses'
p475
S'0xFF'
p476
sS'lock_bits'
p477
S'0xcf'
p478
sS'file'
p479
S'stk500boot_v2_mega2560.hex'
p480
sS'path'
p481
S'stk500v2'
p482
sS'unlock_bits'
p483
S'0xff'
p484
ssS'upload'
p485
(dp486
S'protocol'
p487
S'wiring'
p488
sS'maximum_size'
p489
S'258048'
p490
sS'speed'
p491
S'115200'
p492
ssS'build'
p493
(dp494
S'core'
p495
S'arduino'
p496
sS'mcu'
p497
S'atmega2560'
p498
sS'f_cpu'
p499
S'16000000L'
p500
sS'variant'
p501
S'mega'
p502
ssS'name'
p503
S'Arduino Mega 2560 or Mega ADK'
p504
saa(lp505
S'mega'
p506
a(dp507
S'bootloader'
p508
(dp509
S'extended_fuses'
p510
S'0xF5'
p511
sS'high_fuses'
p512
S'0xDA'
p513
sS'low_fuses'
p514
S'0xFF'
p515
sS'lock_bits'
p516
S'0xcf'
p517
sS'file'
p518
S'ATmegaBOOT_168_atmega1280.hex'
p519
sS'path'
p520
S'atmega'
p521
sS'unlock_bits'
p522
S'0xff'
p523
ssS'upload'
p524
(dp525
S'protocol'
p526
S'arduino'
p527
sS'maximum_size'
p528
S'126976'
p529
sS'speed'
p530
S'57600'
p531
ssS'build'
p532
(dp533
S'core'
p534
S'arduino'
p535
sS'mcu'
p536
S'atmega1280'
p537
sS'f_cpu'
p538
S'16000000L'
p539
sS'variant'
p540
S'mega'
p541
ssS'name'
p542
S'Arduino Mega (ATmega1280)'
p543
saa(lp544
S'leonardo'
p545
a(dp546
S'bootloader'
p547
(dp548
S'extended_fuses'
p549
S'0xcb'
p550
sS'high_fuses'
p551
S'0xd8'
p552
sS'low_fuses'
p553
S'0xff'
p554
sS'lock_bits'
p555
S'0xef'
p556
sS'file'
p557
S'Caterina-Leonardo.hex'
p558
sS'path'
p559
S'caterina'
p560
sS'unlock_bits'
p561
S'0xff'
p562
ssS'upload'
p563
(dp564
S'protocol'
p565
S'avr109'
p566
sS'maximum_size'
p567
S'28672'
p568
sS'speed'
p569
S'57600'
p570
sS'disable_flushing'
p571
S'true'
p572
ssS'build'
p573
(dp574
S'core'
p575
S'arduino'
p576
sS'f_cpu'
p577
S'16000000L'
p578
sS'vid'
p579
S'0x2341'
p580
sS'pid'
p581
S'0x8036'
p582
sS'variant'
p583
S'leonardo'
p584
sS'mcu'
p585
S'atmega32u4'
p586
ssS'name'
p587
S'Arduino Leonardo'
p588
saa(lp589
S'esplora'
p590
a(dp591
S'bootloader'
p592
(dp593
S'extended_fuses'
p594
S'0xcb'
p595
sS'high_fuses'
p596
S'0xd8'
p597
sS'low_fuses'
p598
S'0xff'
p599
sS'lock_bits'
p600
S'0xef'
p601
sS'file'
p602
S'Caterina-Esplora.hex'
p603
sS'path'
p604
S'caterina'
p605
sS'unlock_bits'
p606
S'0xff'
p607
ssS'upload'
p608
(dp609
S'protocol'
p610
S'avr109'
p611
sS'maximum_size'
p612
S'28672'
p613
sS'speed'
p614
S'57600'
p615
sS'disable_flushing'
p616
S'true'
p617
ssS'build'
p618
(dp619
S'core'
p620
S'arduino'
p621
sS'f_cpu'
p622
S'16000000L'
p623
sS'vid'
p624
S'0x2341'
p625
sS'pid'
p626
S'0x803C'
p627
sS'variant'
p628
S'leonardo'
p629
sS'mcu'
p630
S'atmega32u4'
p631
ssS'name'
p632
S'Arduino Esplora'
p633
saa(lp634
S'micro'
p635
a(dp636
S'bootloader'
p637
(dp638
S'extended_fuses'
p639
S'0xcb'
p640
sS'high_fuses'
p641
S'0xd8'
p642
sS'low_fuses'
p643
S'0xff'
p644
sS'lock_bits'
p645
S'0xef'
p646
sS'file'
p647
S'Caterina-Micro.hex'
p648
sS'path'
p649
S'caterina'
p650
sS'unlock_bits'
p651
S'0xff'
p652
ssS'upload'
p653
(dp654
S'protocol'
p655
S'avr109'
p656
sS'maximum_size'
p657
S'28672'
p658
sS'speed'
p659
S'57600'
p660
sS'disable_flushing'
p661
S'true'
p662
ssS'build'
p663
(dp664
S'core'
p665
S'arduino'
p666
sS'f_cpu'
p667
S'16000000L'
p668
sS'vid'
p669
S'0x2341'
p670
sS'pid'
p671
S'0x8037'
p672
sS'variant'
p673
S'micro'
p674
sS'mcu'
p675
S'atmega32u4'
p676
ssS'name'
p677
S'Arduino Micro'
p678
saa(lp679
S'mini328'
p680
a(dp681
S'bootloader'
p682
(dp683
S'extended_fuses'
p684
S'0xfd'
p685
sS'high_fuses'
p686
S'0xd8'
p687
sS'low_fuses'
p688
S'0xff'
p689
sS'lock_bits'
p690
S'0xcf'
p691
sS'file'
p692
S'optiboot_atmega328-Mini.hex'
p693
sS'path'
p694
S'optiboot'
p695
sS'unlock_bits'
p696
S'0xff'
p697
ssS'upload'
p698
(dp699
S'protocol'
p700
S'arduino'
p701
sS'maximum_size'
p702
S'28672'
p703
sS'speed'
p704
S'115200'
p705
ssS'build'
p706
(dp707
S'core'
p708
S'arduino'
p709
sS'mcu'
p710
S'atmega328p'
p711
sS'f_cpu'
p712
S'16000000L'
p713
sS'variant'
p714
S'eightanaloginputs'
p715
ssS'name'
p716
S'Arduino Mini w/ ATmega328'
p717
saa(lp718
S'mini'
p719
a(dp720
S'bootloader'
p721
(dp722
S'extended_fuses'
p723
S'0xf8'
p724
sS'high_fuses'
p725
S'0xdd'
p726
sS'low_fuses'
p727
S'0xff'
p728
sS'lock_bits'
p729
S'0xcf'
p730
sS'file'
p731
S'ATmegaBOOT_168_ng.hex'
p732
sS'path'
p733
S'atmega'
p734
sS'unlock_bits'
p735
S'0xff'
p736
ssS'upload'
p737
(dp738
S'protocol'
p739
S'arduino'
p740
sS'maximum_size'
p741
S'14336'
p742
sS'speed'
p743
S'19200'
p744
ssS'build'
p745
(dp746
S'core'
p747
S'arduino'
p748
sS'mcu'
p749
S'atmega168'
p750
sS'f_cpu'
p751
S'16000000L'
p752
sS'variant'
p753
S'eightanaloginputs'
p754
ssS'name'
p755
S'Arduino Mini w/ ATmega168'
p756
saa(lp757
S'ethernet'
p758
a(dp759
S'bootloader'
p760
(dp761
S'extended_fuses'
p762
S'0xfd'
p763
sS'high_fuses'
p764
S'0xde'
p765
sS'low_fuses'
p766
S'0xff'
p767
sS'lock_bits'
p768
S'0xcf'
p769
sS'file'
p770
S'optiboot_atmega328.hex'
p771
sS'path'
p772
S'optiboot'
p773
sS'unlock_bits'
p774
S'0xff'
p775
ssS'upload'
p776
(dp777
S'protocol'
p778
S'arduino'
p779
sS'maximum_size'
p780
S'32256'
p781
sS'speed'
p782
S'115200'
p783
ssS'build'
p784
(dp785
S'variant'
p786
S'standard'
p787
sS'mcu'
p788
S'atmega328p'
p789
sS'f_cpu'
p790
S'16000000L'
p791
sS'core'
p792
S'arduino'
p793
ssS'name'
p794
S'Arduino Ethernet'
p795
saa(lp796
S'fio'
p797
a(dp798
S'bootloader'
p799
(dp800
S'extended_fuses'
p801
S'0xfd'
p802
sS'high_fuses'
p803
S'0xDA'
p804
sS'low_fuses'
p805
S'0xFF'
p806
sS'lock_bits'
p807
S'0xcf'
p808
sS'file'
p809
S'ATmegaBOOT_168_atmega328_pro_8MHz.hex'
p810
sS'path'
p811
S'arduino:atmega'
p812
sS'unlock_bits'
p813
S'0xff'
p814
ssS'upload'
p815
(dp816
S'protocol'
p817
S'arduino'
p818
sS'maximum_size'
p819
S'30720'
p820
sS'speed'
p821
S'57600'
p822
ssS'build'
p823
(dp824
S'core'
p825
S'arduino'
p826
sS'mcu'
p827
S'atmega328p'
p828
sS'f_cpu'
p829
S'8000000L'
p830
sS'variant'
p831
S'eightanaloginputs'
p832
ssS'name'
p833
S'Arduino Fio'
p834
saa(lp835
S'bt328'
p836
a(dp837
S'bootloader'
p838
(dp839
S'extended_fuses'
p840
S'0xfd'
p841
sS'high_fuses'
p842
S'0xd8'
p843
sS'low_fuses'
p844
S'0xff'
p845
sS'lock_bits'
p846
S'0xcf'
p847
sS'file'
p848
S'ATmegaBOOT_168_atmega328_bt.hex'
p849
sS'path'
p850
S'bt'
p851
sS'unlock_bits'
p852
S'0xff'
p853
ssS'upload'
p854
(dp855
S'protocol'
p856
S'arduino'
p857
sS'maximum_size'
p858
S'28672'
p859
sS'speed'
p860
S'19200'
p861
sS'disable_flushing'
p862
S'true'
p863
ssS'build'
p864
(dp865
S'core'
p866
S'arduino'
p867
sS'mcu'
p868
S'atmega328p'
p869
sS'f_cpu'
p870
S'16000000L'
p871
sS'variant'
p872
S'eightanaloginputs'
p873
ssS'name'
p874
S'Arduino BT w/ ATmega328'
p875
saa(lp876
S'bt'
p877
a(dp878
S'bootloader'
p879
(dp880
S'extended_fuses'
p881
S'0xf8'
p882
sS'high_fuses'
p883
S'0xdd'
p884
sS'low_fuses'
p885
S'0xff'
p886
sS'lock_bits'
p887
S'0xcf'
p888
sS'file'
p889
S'ATmegaBOOT_168.hex'
p890
sS'path'
p891
S'bt'
p892
sS'unlock_bits'
p893
S'0xff'
p894
ssS'upload'
p895
(dp896
S'protocol'
p897
S'arduino'
p898
sS'maximum_size'
p899
S'14336'
p900
sS'speed'
p901
S'19200'
p902
sS'disable_flushing'
p903
S'true'
p904
ssS'build'
p905
(dp906
S'core'
p907
S'arduino'
p908
sS'mcu'
p909
S'atmega168'
p910
sS'f_cpu'
p911
S'16000000L'
p912
sS'variant'
p913
S'eightanaloginputs'
p914
ssS'name'
p915
S'Arduino BT w/ ATmega168'
p916
saa(lp917
S'LilyPadUSB'
p918
a(dp919
S'bootloader'
p920
(dp921
S'extended_fuses'
p922
S'0xce'
p923
sS'high_fuses'
p924
S'0xd8'
p925
sS'low_fuses'
p926
S'0xff'
p927
sS'lock_bits'
p928
S'0xef'
p929
sS'file'
p930
S'Caterina-LilyPadUSB.hex'
p931
sS'path'
p932
S'caterina-LilyPadUSB'
p933
sS'unlock_bits'
p934
S'0xff'
p935
ssS'upload'
p936
(dp937
S'protocol'
p938
S'avr109'
p939
sS'maximum_size'
p940
S'28672'
p941
sS'speed'
p942
S'57600'
p943
sS'disable_flushing'
p944
S'true'
p945
ssS'build'
p946
(dp947
S'core'
p948
S'arduino'
p949
sS'f_cpu'
p950
S'8000000L'
p951
sS'vid'
p952
S'0x1B4F'
p953
sS'pid'
p954
S'0x9208'
p955
sS'variant'
p956
S'leonardo'
p957
sS'mcu'
p958
S'atmega32u4'
p959
ssS'name'
p960
S'LilyPad Arduino USB'
p961
saa(lp962
S'lilypad328'
p963
a(dp964
S'bootloader'
p965
(dp966
S'extended_fuses'
p967
S'0xfd'
p968
sS'high_fuses'
p969
S'0xDA'
p970
sS'low_fuses'
p971
S'0xFF'
p972
sS'lock_bits'
p973
S'0xcf'
p974
sS'file'
p975
S'ATmegaBOOT_168_atmega328_pro_8MHz.hex'
p976
sS'path'
p977
S'atmega'
p978
sS'unlock_bits'
p979
S'0xff'
p980
ssS'upload'
p981
(dp982
S'protocol'
p983
S'arduino'
p984
sS'maximum_size'
p985
S'30720'
p986
sS'speed'
p987
S'57600'
p988
ssS'build'
p989
(dp990
S'core'
p991
S'arduino'
p992
sS'mcu'
p993
S'atmega328p'
p994
sS'f_cpu'
p995
S'8000000L'
p996
sS'variant'
p997
S'standard'
p998
ssS'name'
p999
S'LilyPad Arduino w/ ATmega328'
p1000
saa(lp1001
S'lilypad'
p1002
a(dp1003
S'bootloader'
p1004
(dp1005
S'extended_fuses'
p1006
S'0xf8'
p1007
sS'high_fuses'
p1008
S'0xdd'
p1009
sS'low_fuses'
p1010
S'0xe2'
p1011
sS'lock_bits'
p1012
S'0xcf'
p1013
sS'file'
p1014
S'LilyPadBOOT_168.hex'
p1015
sS'path'
p1016
S'lilypad'
p1017
sS'unlock_bits'
p1018
S'0xff'
p1019
ssS'upload'
p1020
(dp1021
S'protocol'
p1022
S'arduino'
p1023
sS'maximum_size'
p1024
S'14336'
p1025
sS'speed'
p1026
S'19200'
p1027
ssS'build'
p1028
(dp1029
S'core'
p1030
S'arduino'
p1031
sS'mcu'
p1032
S'atmega168'
p1033
sS'f_cpu'
p1034
S'8000000L'
p1035
sS'variant'
p1036
S'standard'
p1037
ssS'name'
p1038
S'LilyPad Arduino w/ ATmega168'
p1039
saa(lp1040
S'pro5v328'
p1041
a(dp1042
S'bootloader'
p1043
(dp1044
S'extended_fuses'
p1045
S'0xfd'
p1046
sS'high_fuses'
p1047
S'0xDA'
p1048
sS'low_fuses'
p1049
S'0xFF'
p1050
sS'lock_bits'
p1051
S'0xcf'
p1052
sS'file'
p1053
S'ATmegaBOOT_168_atmega328.hex'
p1054
sS'path'
p1055
S'atmega'
p1056
sS'unlock_bits'
p1057
S'0xff'
p1058
ssS'upload'
p1059
(dp1060
S'protocol'
p1061
S'arduino'
p1062
sS'maximum_size'
p1063
S'30720'
p1064
sS'speed'
p1065
S'57600'
p1066
ssS'build'
p1067
(dp1068
S'core'
p1069
S'arduino'
p1070
sS'mcu'
p1071
S'atmega328p'
p1072
sS'f_cpu'
p1073
S'16000000L'
p1074
sS'variant'
p1075
S'standard'
p1076
ssS'name'
p1077
S'Arduino Pro or Pro Mini (5V, 16 MHz) w/ ATmega328'
p1078
saa(lp1079
S'pro5v'
p1080
a(dp1081
S'bootloader'
p1082
(dp1083
S'extended_fuses'
p1084
S'0xf8'
p1085
sS'high_fuses'
p1086
S'0xdd'
p1087
sS'low_fuses'
p1088
S'0xff'
p1089
sS'lock_bits'
p1090
S'0xcf'
p1091
sS'file'
p1092
S'ATmegaBOOT_168_diecimila.hex'
p1093
sS'path'
p1094
S'atmega'
p1095
sS'unlock_bits'
p1096
S'0xff'
p1097
ssS'upload'
p1098
(dp1099
S'protocol'
p1100
S'arduino'
p1101
sS'maximum_size'
p1102
S'14336'
p1103
sS'speed'
p1104
S'19200'
p1105
ssS'build'
p1106
(dp1107
S'core'
p1108
S'arduino'
p1109
sS'mcu'
p1110
S'atmega168'
p1111
sS'f_cpu'
p1112
S'16000000L'
p1113
sS'variant'
p1114
S'standard'
p1115
ssS'name'
p1116
S'Arduino Pro or Pro Mini (5V, 16 MHz) w/ ATmega168'
p1117
saa(lp1118
S'pro328'
p1119
a(dp1120
S'bootloader'
p1121
(dp1122
S'extended_fuses'
p1123
S'0xfd'
p1124
sS'high_fuses'
p1125
S'0xDA'
p1126
sS'low_fuses'
p1127
S'0xFF'
p1128
sS'lock_bits'
p1129
S'0xcf'
p1130
sS'file'
p1131
S'ATmegaBOOT_168_atmega328_pro_8MHz.hex'
p1132
sS'path'
p1133
S'atmega'
p1134
sS'unlock_bits'
p1135
S'0xff'
p1136
ssS'upload'
p1137
(dp1138
S'protocol'
p1139
S'arduino'
p1140
sS'maximum_size'
p1141
S'30720'
p1142
sS'speed'
p1143
S'57600'
p1144
ssS'build'
p1145
(dp1146
S'core'
p1147
S'arduino'
p1148
sS'mcu'
p1149
S'atmega328p'
p1150
sS'f_cpu'
p1151
S'8000000L'
p1152
sS'variant'
p1153
S'standard'
p1154
ssS'name'
p1155
S'Arduino Pro or Pro Mini (3.3V, 8 MHz) w/ ATmega328'
p1156
saa(lp1157
S'pro'
p1158
a(dp1159
S'bootloader'
p1160
(dp1161
S'extended_fuses'
p1162
S'0xf8'
p1163
sS'high_fuses'
p1164
S'0xdd'
p1165
sS'low_fuses'
p1166
S'0xc6'
p1167
sS'lock_bits'
p1168
S'0xcf'
p1169
sS'file'
p1170
S'ATmegaBOOT_168_pro_8MHz.hex'
p1171
sS'path'
p1172
S'atmega'
p1173
sS'unlock_bits'
p1174
S'0xff'
p1175
ssS'upload'
p1176
(dp1177
S'protocol'
p1178
S'arduino'
p1179
sS'maximum_size'
p1180
S'14336'
p1181
sS'speed'
p1182
S'19200'
p1183
ssS'build'
p1184
(dp1185
S'core'
p1186
S'arduino'
p1187
sS'mcu'
p1188
S'atmega168'
p1189
sS'f_cpu'
p1190
S'8000000L'
p1191
sS'variant'
p1192
S'standard'
p1193
ssS'name'
p1194
S'Arduino Pro or Pro Mini (3.3V, 8 MHz) w/ ATmega168'
p1195
saa(lp1196
S'atmega168'
p1197
a(dp1198
S'bootloader'
p1199
(dp1200
S'extended_fuses'
p1201
S'0xf8'
p1202
sS'high_fuses'
p1203
S'0xdd'
p1204
sS'low_fuses'
p1205
S'0xff'
p1206
sS'lock_bits'
p1207
S'0xcf'
p1208
sS'file'
p1209
S'ATmegaBOOT_168_ng.hex'
p1210
sS'path'
p1211
S'atmega'
p1212
sS'unlock_bits'
p1213
S'0xff'
p1214
ssS'upload'
p1215
(dp1216
S'protocol'
p1217
S'arduino'
p1218
sS'maximum_size'
p1219
S'14336'
p1220
sS'speed'
p1221
S'19200'
p1222
ssS'build'
p1223
(dp1224
S'core'
p1225
S'arduino'
p1226
sS'mcu'
p1227
S'atmega168'
p1228
sS'f_cpu'
p1229
S'16000000L'
p1230
sS'variant'
p1231
S'standard'
p1232
ssS'name'
p1233
S'Arduino NG or older w/ ATmega168'
p1234
saa(lp1235
S'atmega8'
p1236
a(dp1237
S'bootloader'
p1238
(dp1239
S'high_fuses'
p1240
S'0xca'
p1241
sS'low_fuses'
p1242
S'0xdf'
p1243
sS'lock_bits'
p1244
S'0xcf'
p1245
sS'file'
p1246
S'ATmegaBOOT-prod-firmware-2009-11-07.hex'
p1247
sS'path'
p1248
S'atmega8'
p1249
sS'unlock_bits'
p1250
S'0xff'
p1251
ssS'upload'
p1252
(dp1253
S'protocol'
p1254
S'arduino'
p1255
sS'maximum_size'
p1256
S'7168'
p1257
sS'speed'
p1258
S'19200'
p1259
ssS'build'
p1260
(dp1261
S'core'
p1262
S'arduino'
p1263
sS'mcu'
p1264
S'atmega8'
p1265
sS'f_cpu'
p1266
S'16000000L'
p1267
sS'variant'
p1268
S'standard'
p1269
ssS'name'
p1270
S'Arduino NG or older w/ ATmega8'
p1271
saa(lp1272
S'robotControl'
p1273
a(dp1274
S'bootloader'
p1275
(dp1276
S'extended_fuses'
p1277
S'0xcb'
p1278
sS'high_fuses'
p1279
S'0xd8'
p1280
sS'low_fuses'
p1281
S'0xff'
p1282
sS'lock_bits'
p1283
S'0xef'
p1284
sS'file'
p1285
S'Caterina-Robot-Control.hex'
p1286
sS'path'
p1287
S'caterina-Arduino_Robot'
p1288
sS'unlock_bits'
p1289
S'0xff'
p1290
ssS'upload'
p1291
(dp1292
S'protocol'
p1293
S'avr109'
p1294
sS'maximum_size'
p1295
S'28672'
p1296
sS'speed'
p1297
S'57600'
p1298
sS'disable_flushing'
p1299
S'true'
p1300
ssS'build'
p1301
(dp1302
S'core'
p1303
S'robot'
p1304
sS'f_cpu'
p1305
S'16000000L'
p1306
sS'vid'
p1307
S'0x2341'
p1308
sS'pid'
p1309
S'0x8038'
p1310
sS'variant'
p1311
S'robot_control'
p1312
sS'mcu'
p1313
S'atmega32u4'
p1314
ssS'name'
p1315
S'Arduino Robot Control'
p1316
saa(lp1317
S'robotMotor'
p1318
a(dp1319
S'bootloader'
p1320
(dp1321
S'extended_fuses'
p1322
S'0xcb'
p1323
sS'high_fuses'
p1324
S'0xd8'
p1325
sS'low_fuses'
p1326
S'0xff'
p1327
sS'lock_bits'
p1328
S'0xef'
p1329
sS'file'
p1330
S'Caterina-Robot-Motor.hex'
p1331
sS'path'
p1332
S'caterina-Arduino_Robot'
p1333
sS'unlock_bits'
p1334
S'0xff'
p1335
ssS'upload'
p1336
(dp1337
S'protocol'
p1338
S'avr109'
p1339
sS'maximum_size'
p1340
S'28672'
p1341
sS'speed'
p1342
S'57600'
p1343
sS'disable_flushing'
p1344
S'true'
p1345
ssS'build'
p1346
(dp1347
S'core'
p1348
S'robot'
p1349
sS'f_cpu'
p1350
S'16000000L'
p1351
sS'vid'
p1352
S'0x2341'
p1353
sS'pid'
p1354
S'0x8039'
p1355
sS'variant'
p1356
S'robot_motor'
p1357
sS'mcu'
p1358
S'atmega32u4'
p1359
ssS'name'
p1360
S'Arduino Robot Motor'
p1361
saatp1362
Rp1363
(dp1364
S'default'
p1365
S'uno'
p1366
sbtp1367
a(S'used_libs'
p1368
(lp1369
S'lib/Encoder'
p1370
aS'lib/CmdMessenger'
p1371
aS'lib/DigiPotX9Cxxx'
p1372
aS'/usr/share/arduino/libraries/SoftwareSerial'
p1373
aS'lib/SimpleTimer'
p1374
aS'/usr/share/arduino/hardware/arduino/cores/arduino'
p1375
atp1376
a(S'make'
p1377
S'/usr/share/arduino/hardware/tools/avr/bin/make'
p1378
tp1379
a(S'build_dir'
p1380
S'.build/mega2560'
p1381
tp1382
a(S'cc'
p1383
S'/usr/share/arduino/hardware/tools/avr/bin/avr-gcc'
p1384
tp1385
a(S'cflags'
p1386
g2
(g3
g4
(lp1387
tp1388
Rp1389
tp1390
a(S'cxxflags'
p1391
g2
(g3
g4
(lp1392
S'-fno-exceptions'
p1393
atp1394
Rp1395
tp1396
a(S'arduino_variants_dir'
p1397
S'/usr/share/arduino/hardware/arduino/variants'
p1398
tp1399
a(S'stty'
p1400
S'/bin/stty'
p1401
tp1402
a(S'version.txt'
p1403
S'/usr/share/arduino/lib/version.txt'
p1404
tp1405
a(S'arduino_core_dir'
p1406
g1375
tp1407
a(S'boards.txt'
p1408
S'/usr/share/arduino/hardware/arduino/boards.txt'
p1409
tp1410
a(S'avrdude.conf'
p1411
S'/usr/share/arduino/hardware/tools/avrdude.conf'
p1412
tp1413
a(g248
g2
(g3
g4
(lp1414
S'.build/mega2560/src/dependencies.d'
p1415
aS'.build/mega2560/arduino/dependencies.d'
p1416
aS'.build/mega2560/Encoder/dependencies.d'
p1417
aS'.build/mega2560/CmdMessenger/dependencies.d'
p1418
aS'.build/mega2560/DigiPotX9Cxxx/dependencies.d'
p1419
aS'.build/mega2560/SoftwareSerial/dependencies.d'
p1420
aS'.build/mega2560/SimpleTimer/dependencies.d'
p1421
atp1422
Rp1423
tp1424
a.