(lp0
(S'cppflags'
p1
ccopy_reg
_reconstructor
p2
(cino.utils
SpaceList
p3
c__builtin__
list
p4
(lp5
S'-mmcu=atmega1280'
p6
aS'-DF_CPU=16000000L'
p7
aS'-DARDUINO=105'
p8
aS'-I/usr/share/arduino/hardware/arduino/cores/arduino'
p9
aS'-ffunction-sections'
p10
aS'-fdata-sections'
p11
aS'-g'
p12
aS'-Os'
p13
aS'-w'
p14
aS'-I/usr/share/arduino/hardware/arduino/variants/mega'
p15
aS'-Ilib/CmdMessenger'
p16
aS'-Ilib/CmdMessenger/utility'
p17
aS'-Ilib/CmdMessenger/extras'
p18
aS'-Ilib/CmdMessenger/Documentation'
p19
aS'-Ilib/CmdMessenger/extras/CSharp'
p20
aS'-Ilib/CmdMessenger/extras/documentation'
p21
aS'-Ilib/CmdMessenger/extras/CSharp/TemperatureControl'
p22
aS'-Ilib/CmdMessenger/extras/CSharp/CommandMessengerTests'
p23
aS'-Ilib/CmdMessenger/extras/CSharp/CommandMessenger'
p24
aS'-Ilib/CmdMessenger/extras/CSharp/CommandMessenger.Transport.Network'
p25
aS'-Ilib/CmdMessenger/extras/CSharp/CommandMessenger.Transport.Serial'
p26
aS'-Ilib/CmdMessenger/extras/CSharp/SimpleWatchdog'
p27
aS'-Ilib/CmdMessenger/extras/CSharp/SendAndReceiveArguments'
p28
aS'-Ilib/CmdMessenger/extras/CSharp/SendAndReceive'
p29
aS'-Ilib/CmdMessenger/extras/CSharp/Receive'
p30
aS'-Ilib/CmdMessenger/extras/CSharp/Bluetooth'
p31
aS'-Ilib/CmdMessenger/extras/CSharp/SendAndReceiveBinaryArguments'
p32
aS'-Ilib/CmdMessenger/extras/CSharp/ZedGraph'
p33
aS'-Ilib/CmdMessenger/extras/CSharp/SimpleBluetooth'
p34
aS'-Ilib/CmdMessenger/extras/CSharp/CommandMessenger.Transport.Bluetooth'
p35
aS'-Ilib/CmdMessenger/extras/CSharp/DataLogging'
p36
aS'-Ilib/CmdMessenger/extras/CSharp/ArduinoController'
p37
aS'-Ilib/CmdMessenger/extras/CSharp/TemperatureControl/Properties'
p38
aS'-Ilib/CmdMessenger/extras/CSharp/CommandMessengerTests/Tests'
p39
aS'-Ilib/CmdMessenger/extras/CSharp/CommandMessengerTests/Properties'
p40
aS'-Ilib/CmdMessenger/extras/CSharp/CommandMessenger/Transport'
p41
aS'-Ilib/CmdMessenger/extras/CSharp/CommandMessenger/Queue'
p42
aS'-Ilib/CmdMessenger/extras/CSharp/CommandMessenger/Properties'
p43
aS'-Ilib/CmdMessenger/extras/CSharp/CommandMessenger.Transport.Network/Properties'
p44
aS'-Ilib/CmdMessenger/extras/CSharp/CommandMessenger.Transport.Serial/Properties'
p45
aS'-Ilib/CmdMessenger/extras/CSharp/SimpleWatchdog/Properties'
p46
aS'-Ilib/CmdMessenger/extras/CSharp/SendAndReceiveArguments/Properties'
p47
aS'-Ilib/CmdMessenger/extras/CSharp/SendAndReceive/Properties'
p48
aS'-Ilib/CmdMessenger/extras/CSharp/Receive/Properties'
p49
aS'-Ilib/CmdMessenger/extras/CSharp/SendAndReceiveBinaryArguments/Properties'
p50
aS'-Ilib/CmdMessenger/extras/CSharp/ZedGraph/es'
p51
aS'-Ilib/CmdMessenger/extras/CSharp/ZedGraph/hu'
p52
aS'-Ilib/CmdMessenger/extras/CSharp/ZedGraph/zh-cn'
p53
aS'-Ilib/CmdMessenger/extras/CSharp/ZedGraph/de'
p54
aS'-Ilib/CmdMessenger/extras/CSharp/ZedGraph/sv'
p55
aS'-Ilib/CmdMessenger/extras/CSharp/ZedGraph/it'
p56
aS'-Ilib/CmdMessenger/extras/CSharp/ZedGraph/ja'
p57
aS'-Ilib/CmdMessenger/extras/CSharp/ZedGraph/zh-tw'
p58
aS'-Ilib/CmdMessenger/extras/CSharp/ZedGraph/sk'
p59
aS'-Ilib/CmdMessenger/extras/CSharp/ZedGraph/pt'
p60
aS'-Ilib/CmdMessenger/extras/CSharp/ZedGraph/fr'
p61
aS'-Ilib/CmdMessenger/extras/CSharp/ZedGraph/ru'
p62
aS'-Ilib/CmdMessenger/extras/CSharp/ZedGraph/tr'
p63
aS'-Ilib/CmdMessenger/extras/CSharp/SimpleBluetooth/Properties'
p64
aS'-Ilib/CmdMessenger/extras/CSharp/CommandMessenger.Transport.Bluetooth/Properties'
p65
aS'-Ilib/CmdMessenger/extras/CSharp/DataLogging/Properties'
p66
aS'-Ilib/CmdMessenger/extras/CSharp/ArduinoController/Properties'
p67
aS'-Ilib/CmdMessenger/extras/documentation/Arduino'
p68
aS'-Ilib/CmdMessenger/extras/documentation/PC'
p69
aS'-Ilib/CmdMessenger/extras/documentation/Arduino/html'
p70
aS'-Ilib/CmdMessenger/extras/documentation/PC/html'
p71
aS'-Ilib/CmdMessenger/extras/CSharp/TemperatureControl/Properties'
p72
aS'-Ilib/CmdMessenger/extras/CSharp/CommandMessengerTests/Tests'
p73
aS'-Ilib/CmdMessenger/extras/CSharp/CommandMessengerTests/Properties'
p74
aS'-Ilib/CmdMessenger/extras/CSharp/CommandMessenger/Transport'
p75
aS'-Ilib/CmdMessenger/extras/CSharp/CommandMessenger/Queue'
p76
aS'-Ilib/CmdMessenger/extras/CSharp/CommandMessenger/Properties'
p77
aS'-Ilib/CmdMessenger/extras/CSharp/CommandMessenger.Transport.Network/Properties'
p78
aS'-Ilib/CmdMessenger/extras/CSharp/CommandMessenger.Transport.Serial/Properties'
p79
aS'-Ilib/CmdMessenger/extras/CSharp/SimpleWatchdog/Properties'
p80
aS'-Ilib/CmdMessenger/extras/CSharp/SendAndReceiveArguments/Properties'
p81
aS'-Ilib/CmdMessenger/extras/CSharp/SendAndReceive/Properties'
p82
aS'-Ilib/CmdMessenger/extras/CSharp/Receive/Properties'
p83
aS'-Ilib/CmdMessenger/extras/CSharp/SendAndReceiveBinaryArguments/Properties'
p84
aS'-Ilib/CmdMessenger/extras/CSharp/ZedGraph/es'
p85
aS'-Ilib/CmdMessenger/extras/CSharp/ZedGraph/hu'
p86
aS'-Ilib/CmdMessenger/extras/CSharp/ZedGraph/zh-cn'
p87
aS'-Ilib/CmdMessenger/extras/CSharp/ZedGraph/de'
p88
aS'-Ilib/CmdMessenger/extras/CSharp/ZedGraph/sv'
p89
aS'-Ilib/CmdMessenger/extras/CSharp/ZedGraph/it'
p90
aS'-Ilib/CmdMessenger/extras/CSharp/ZedGraph/ja'
p91
aS'-Ilib/CmdMessenger/extras/CSharp/ZedGraph/zh-tw'
p92
aS'-Ilib/CmdMessenger/extras/CSharp/ZedGraph/sk'
p93
aS'-Ilib/CmdMessenger/extras/CSharp/ZedGraph/pt'
p94
aS'-Ilib/CmdMessenger/extras/CSharp/ZedGraph/fr'
p95
aS'-Ilib/CmdMessenger/extras/CSharp/ZedGraph/ru'
p96
aS'-Ilib/CmdMessenger/extras/CSharp/ZedGraph/tr'
p97
aS'-Ilib/CmdMessenger/extras/CSharp/SimpleBluetooth/Properties'
p98
aS'-Ilib/CmdMessenger/extras/CSharp/CommandMessenger.Transport.Bluetooth/Properties'
p99
aS'-Ilib/CmdMessenger/extras/CSharp/DataLogging/Properties'
p100
aS'-Ilib/CmdMessenger/extras/CSharp/ArduinoController/Properties'
p101
aS'-Ilib/CmdMessenger/extras/documentation/Arduino/html'
p102
aS'-Ilib/CmdMessenger/extras/documentation/PC/html'
p103
aS'-Ilib/CmdMessenger/Documentation/Arduino'
p104
aS'-Ilib/CmdMessenger/Documentation/PC'
p105
aS'-Ilib/CmdMessenger/extras/CSharp/TemperatureControl'
p106
aS'-Ilib/CmdMessenger/extras/CSharp/CommandMessengerTests'
p107
aS'-Ilib/CmdMessenger/extras/CSharp/CommandMessenger'
p108
aS'-Ilib/CmdMessenger/extras/CSharp/CommandMessenger.Transport.Network'
p109
aS'-Ilib/CmdMessenger/extras/CSharp/CommandMessenger.Transport.Serial'
p110
aS'-Ilib/CmdMessenger/extras/CSharp/SimpleWatchdog'
p111
aS'-Ilib/CmdMessenger/extras/CSharp/SendAndReceiveArguments'
p112
aS'-Ilib/CmdMessenger/extras/CSharp/SendAndReceive'
p113
aS'-Ilib/CmdMessenger/extras/CSharp/Receive'
p114
aS'-Ilib/CmdMessenger/extras/CSharp/Bluetooth'
p115
aS'-Ilib/CmdMessenger/extras/CSharp/SendAndReceiveBinaryArguments'
p116
aS'-Ilib/CmdMessenger/extras/CSharp/ZedGraph'
p117
aS'-Ilib/CmdMessenger/extras/CSharp/SimpleBluetooth'
p118
aS'-Ilib/CmdMessenger/extras/CSharp/CommandMessenger.Transport.Bluetooth'
p119
aS'-Ilib/CmdMessenger/extras/CSharp/DataLogging'
p120
aS'-Ilib/CmdMessenger/extras/CSharp/ArduinoController'
p121
aS'-Ilib/CmdMessenger/extras/CSharp/TemperatureControl/Properties'
p122
aS'-Ilib/CmdMessenger/extras/CSharp/CommandMessengerTests/Tests'
p123
aS'-Ilib/CmdMessenger/extras/CSharp/CommandMessengerTests/Properties'
p124
aS'-Ilib/CmdMessenger/extras/CSharp/CommandMessenger/Transport'
p125
aS'-Ilib/CmdMessenger/extras/CSharp/CommandMessenger/Queue'
p126
aS'-Ilib/CmdMessenger/extras/CSharp/CommandMessenger/Properties'
p127
aS'-Ilib/CmdMessenger/extras/CSharp/CommandMessenger.Transport.Network/Properties'
p128
aS'-Ilib/CmdMessenger/extras/CSharp/CommandMessenger.Transport.Serial/Properties'
p129
aS'-Ilib/CmdMessenger/extras/CSharp/SimpleWatchdog/Properties'
p130
aS'-Ilib/CmdMessenger/extras/CSharp/SendAndReceiveArguments/Properties'
p131
aS'-Ilib/CmdMessenger/extras/CSharp/SendAndReceive/Properties'
p132
aS'-Ilib/CmdMessenger/extras/CSharp/Receive/Properties'
p133
aS'-Ilib/CmdMessenger/extras/CSharp/SendAndReceiveBinaryArguments/Properties'
p134
aS'-Ilib/CmdMessenger/extras/CSharp/ZedGraph/es'
p135
aS'-Ilib/CmdMessenger/extras/CSharp/ZedGraph/hu'
p136
aS'-Ilib/CmdMessenger/extras/CSharp/ZedGraph/zh-cn'
p137
aS'-Ilib/CmdMessenger/extras/CSharp/ZedGraph/de'
p138
aS'-Ilib/CmdMessenger/extras/CSharp/ZedGraph/sv'
p139
aS'-Ilib/CmdMessenger/extras/CSharp/ZedGraph/it'
p140
aS'-Ilib/CmdMessenger/extras/CSharp/ZedGraph/ja'
p141
aS'-Ilib/CmdMessenger/extras/CSharp/ZedGraph/zh-tw'
p142
aS'-Ilib/CmdMessenger/extras/CSharp/ZedGraph/sk'
p143
aS'-Ilib/CmdMessenger/extras/CSharp/ZedGraph/pt'
p144
aS'-Ilib/CmdMessenger/extras/CSharp/ZedGraph/fr'
p145
aS'-Ilib/CmdMessenger/extras/CSharp/ZedGraph/ru'
p146
aS'-Ilib/CmdMessenger/extras/CSharp/ZedGraph/tr'
p147
aS'-Ilib/CmdMessenger/extras/CSharp/SimpleBluetooth/Properties'
p148
aS'-Ilib/CmdMessenger/extras/CSharp/CommandMessenger.Transport.Bluetooth/Properties'
p149
aS'-Ilib/CmdMessenger/extras/CSharp/DataLogging/Properties'
p150
aS'-Ilib/CmdMessenger/extras/CSharp/ArduinoController/Properties'
p151
aS'-Ilib/CmdMessenger/extras/documentation/Arduino'
p152
aS'-Ilib/CmdMessenger/extras/documentation/PC'
p153
aS'-Ilib/CmdMessenger/extras/documentation/Arduino/html'
p154
aS'-Ilib/CmdMessenger/extras/documentation/PC/html'
p155
aS'-Ilib/CmdMessenger/extras/CSharp/TemperatureControl/Properties'
p156
aS'-Ilib/CmdMessenger/extras/CSharp/CommandMessengerTests/Tests'
p157
aS'-Ilib/CmdMessenger/extras/CSharp/CommandMessengerTests/Properties'
p158
aS'-Ilib/CmdMessenger/extras/CSharp/CommandMessenger/Transport'
p159
aS'-Ilib/CmdMessenger/extras/CSharp/CommandMessenger/Queue'
p160
aS'-Ilib/CmdMessenger/extras/CSharp/CommandMessenger/Properties'
p161
aS'-Ilib/CmdMessenger/extras/CSharp/CommandMessenger.Transport.Network/Properties'
p162
aS'-Ilib/CmdMessenger/extras/CSharp/CommandMessenger.Transport.Serial/Properties'
p163
aS'-Ilib/CmdMessenger/extras/CSharp/SimpleWatchdog/Properties'
p164
aS'-Ilib/CmdMessenger/extras/CSharp/SendAndReceiveArguments/Properties'
p165
aS'-Ilib/CmdMessenger/extras/CSharp/SendAndReceive/Properties'
p166
aS'-Ilib/CmdMessenger/extras/CSharp/Receive/Properties'
p167
aS'-Ilib/CmdMessenger/extras/CSharp/SendAndReceiveBinaryArguments/Properties'
p168
aS'-Ilib/CmdMessenger/extras/CSharp/ZedGraph/es'
p169
aS'-Ilib/CmdMessenger/extras/CSharp/ZedGraph/hu'
p170
aS'-Ilib/CmdMessenger/extras/CSharp/ZedGraph/zh-cn'
p171
aS'-Ilib/CmdMessenger/extras/CSharp/ZedGraph/de'
p172
aS'-Ilib/CmdMessenger/extras/CSharp/ZedGraph/sv'
p173
aS'-Ilib/CmdMessenger/extras/CSharp/ZedGraph/it'
p174
aS'-Ilib/CmdMessenger/extras/CSharp/ZedGraph/ja'
p175
aS'-Ilib/CmdMessenger/extras/CSharp/ZedGraph/zh-tw'
p176
aS'-Ilib/CmdMessenger/extras/CSharp/ZedGraph/sk'
p177
aS'-Ilib/CmdMessenger/extras/CSharp/ZedGraph/pt'
p178
aS'-Ilib/CmdMessenger/extras/CSharp/ZedGraph/fr'
p179
aS'-Ilib/CmdMessenger/extras/CSharp/ZedGraph/ru'
p180
aS'-Ilib/CmdMessenger/extras/CSharp/ZedGraph/tr'
p181
aS'-Ilib/CmdMessenger/extras/CSharp/SimpleBluetooth/Properties'
p182
aS'-Ilib/CmdMessenger/extras/CSharp/CommandMessenger.Transport.Bluetooth/Properties'
p183
aS'-Ilib/CmdMessenger/extras/CSharp/DataLogging/Properties'
p184
aS'-Ilib/CmdMessenger/extras/CSharp/ArduinoController/Properties'
p185
aS'-Ilib/CmdMessenger/extras/documentation/Arduino/html'
p186
aS'-Ilib/CmdMessenger/extras/documentation/PC/html'
p187
aS'-Ilib/CmdMessenger/extras/CSharp/TemperatureControl/Properties'
p188
aS'-Ilib/CmdMessenger/extras/CSharp/CommandMessengerTests/Tests'
p189
aS'-Ilib/CmdMessenger/extras/CSharp/CommandMessengerTests/Properties'
p190
aS'-Ilib/CmdMessenger/extras/CSharp/CommandMessenger/Transport'
p191
aS'-Ilib/CmdMessenger/extras/CSharp/CommandMessenger/Queue'
p192
aS'-Ilib/CmdMessenger/extras/CSharp/CommandMessenger/Properties'
p193
aS'-Ilib/CmdMessenger/extras/CSharp/CommandMessenger.Transport.Network/Properties'
p194
aS'-Ilib/CmdMessenger/extras/CSharp/CommandMessenger.Transport.Serial/Properties'
p195
aS'-Ilib/CmdMessenger/extras/CSharp/SimpleWatchdog/Properties'
p196
aS'-Ilib/CmdMessenger/extras/CSharp/SendAndReceiveArguments/Properties'
p197
aS'-Ilib/CmdMessenger/extras/CSharp/SendAndReceive/Properties'
p198
aS'-Ilib/CmdMessenger/extras/CSharp/Receive/Properties'
p199
aS'-Ilib/CmdMessenger/extras/CSharp/SendAndReceiveBinaryArguments/Properties'
p200
aS'-Ilib/CmdMessenger/extras/CSharp/ZedGraph/es'
p201
aS'-Ilib/CmdMessenger/extras/CSharp/ZedGraph/hu'
p202
aS'-Ilib/CmdMessenger/extras/CSharp/ZedGraph/zh-cn'
p203
aS'-Ilib/CmdMessenger/extras/CSharp/ZedGraph/de'
p204
aS'-Ilib/CmdMessenger/extras/CSharp/ZedGraph/sv'
p205
aS'-Ilib/CmdMessenger/extras/CSharp/ZedGraph/it'
p206
aS'-Ilib/CmdMessenger/extras/CSharp/ZedGraph/ja'
p207
aS'-Ilib/CmdMessenger/extras/CSharp/ZedGraph/zh-tw'
p208
aS'-Ilib/CmdMessenger/extras/CSharp/ZedGraph/sk'
p209
aS'-Ilib/CmdMessenger/extras/CSharp/ZedGraph/pt'
p210
aS'-Ilib/CmdMessenger/extras/CSharp/ZedGraph/fr'
p211
aS'-Ilib/CmdMessenger/extras/CSharp/ZedGraph/ru'
p212
aS'-Ilib/CmdMessenger/extras/CSharp/ZedGraph/tr'
p213
aS'-Ilib/CmdMessenger/extras/CSharp/SimpleBluetooth/Properties'
p214
aS'-Ilib/CmdMessenger/extras/CSharp/CommandMessenger.Transport.Bluetooth/Properties'
p215
aS'-Ilib/CmdMessenger/extras/CSharp/DataLogging/Properties'
p216
aS'-Ilib/CmdMessenger/extras/CSharp/ArduinoController/Properties'
p217
aS'-Ilib/CmdMessenger/extras/documentation/Arduino/html'
p218
aS'-Ilib/CmdMessenger/extras/documentation/PC/html'
p219
aS'-I/usr/share/arduino/hardware/arduino/cores/arduino'
p220
aS'-I/usr/share/arduino/hardware/arduino/cores/arduino/avr-libc'
p221
atp222
Rp223
tp224
a(S'cxx'
p225
S'/usr/share/arduino/hardware/tools/avr/bin/avr-g++'
p226
tp227
a(S'arduino_libraries_dir'
p228
S'/usr/share/arduino/libraries'
p229
tp230
a(S'avrdude'
p231
S'/usr/share/arduino/hardware/tools/avrdude'
p232
tp233
a(S'ar'
p234
S'/usr/share/arduino/hardware/tools/avr/bin/avr-ar'
p235
tp236
a(S'names'
p237
(dp238
S'cpp'
p239
S'%s.cpp'
p240
sS'obj'
p241
S'%s.o'
p242
sS'lib'
p243
S'lib%s.a'
p244
sS'deps'
p245
S'%s.d'
p246
stp247
a(S'ldflags'
p248
g2
(g3
g4
(lp249
g6
aS'-Wl,-Os'
p250
aS'-Wl,--gc-sections'
p251
atp252
Rp253
tp254
a(S'arduino_lib_version'
p255
g2
(cino.environment
Version
p256
c__builtin__
tuple
p257
(I1
I0
I5
tp258
tp259
Rp260
tp261
a(S'objcopy'
p262
S'/usr/share/arduino/hardware/tools/avr/bin/avr-objcopy'
p263
tp264
a(S'board_models'
p265
cino.environment
BoardModels
p266
((lp267
(lp268
S'uno'
p269
a(dp270
S'_coredir'
p271
S'/usr/share/arduino/hardware/arduino'
p272
sS'bootloader'
p273
(dp274
S'extended_fuses'
p275
S'0xfd'
p276
sS'high_fuses'
p277
S'0xde'
p278
sS'low_fuses'
p279
S'0xff'
p280
sS'lock_bits'
p281
S'0xcf'
p282
sS'file'
p283
S'optiboot_atmega328.hex'
p284
sS'path'
p285
S'optiboot'
p286
sS'unlock_bits'
p287
S'0xff'
p288
ssS'build'
p289
(dp290
S'core'
p291
S'arduino'
p292
sS'mcu'
p293
S'atmega328p'
p294
sS'f_cpu'
p295
S'16000000L'
p296
sS'variant'
p297
S'standard'
p298
ssS'name'
p299
S'Arduino Uno'
p300
sS'upload'
p301
(dp302
S'protocol'
p303
S'arduino'
p304
sS'maximum_size'
p305
S'32256'
p306
sS'speed'
p307
S'115200'
p308
ssaa(lp309
S'atmega328'
p310
a(dp311
g271
S'/usr/share/arduino/hardware/arduino'
p312
sS'bootloader'
p313
(dp314
S'extended_fuses'
p315
S'0xfd'
p316
sS'high_fuses'
p317
S'0xDA'
p318
sS'low_fuses'
p319
S'0xFF'
p320
sS'lock_bits'
p321
S'0xcf'
p322
sS'file'
p323
S'ATmegaBOOT_168_atmega328.hex'
p324
sS'path'
p325
S'atmega'
p326
sS'unlock_bits'
p327
S'0xff'
p328
ssS'build'
p329
(dp330
S'core'
p331
S'arduino'
p332
sS'mcu'
p333
S'atmega328p'
p334
sS'f_cpu'
p335
S'16000000L'
p336
sS'variant'
p337
S'standard'
p338
ssS'name'
p339
S'Arduino Duemilanove w/ ATmega328'
p340
sS'upload'
p341
(dp342
S'protocol'
p343
S'arduino'
p344
sS'maximum_size'
p345
S'30720'
p346
sS'speed'
p347
S'57600'
p348
ssaa(lp349
S'diecimila'
p350
a(dp351
g271
S'/usr/share/arduino/hardware/arduino'
p352
sS'bootloader'
p353
(dp354
S'extended_fuses'
p355
S'0xf8'
p356
sS'high_fuses'
p357
S'0xdd'
p358
sS'low_fuses'
p359
S'0xff'
p360
sS'lock_bits'
p361
S'0xcf'
p362
sS'file'
p363
S'ATmegaBOOT_168_diecimila.hex'
p364
sS'path'
p365
S'atmega'
p366
sS'unlock_bits'
p367
S'0xff'
p368
ssS'build'
p369
(dp370
S'core'
p371
S'arduino'
p372
sS'mcu'
p373
S'atmega168'
p374
sS'f_cpu'
p375
S'16000000L'
p376
sS'variant'
p377
S'standard'
p378
ssS'name'
p379
S'Arduino Diecimila or Duemilanove w/ ATmega168'
p380
sS'upload'
p381
(dp382
S'protocol'
p383
S'arduino'
p384
sS'maximum_size'
p385
S'14336'
p386
sS'speed'
p387
S'19200'
p388
ssaa(lp389
S'nano328'
p390
a(dp391
g271
S'/usr/share/arduino/hardware/arduino'
p392
sS'bootloader'
p393
(dp394
S'extended_fuses'
p395
S'0xfd'
p396
sS'high_fuses'
p397
S'0xDA'
p398
sS'low_fuses'
p399
S'0xFF'
p400
sS'lock_bits'
p401
S'0xcf'
p402
sS'file'
p403
S'ATmegaBOOT_168_atmega328.hex'
p404
sS'path'
p405
S'atmega'
p406
sS'unlock_bits'
p407
S'0xff'
p408
ssS'build'
p409
(dp410
S'core'
p411
S'arduino'
p412
sS'mcu'
p413
S'atmega328p'
p414
sS'f_cpu'
p415
S'16000000L'
p416
sS'variant'
p417
S'eightanaloginputs'
p418
ssS'name'
p419
S'Arduino Nano w/ ATmega328'
p420
sS'upload'
p421
(dp422
S'protocol'
p423
S'arduino'
p424
sS'maximum_size'
p425
S'30720'
p426
sS'speed'
p427
S'57600'
p428
ssaa(lp429
S'nano'
p430
a(dp431
g271
S'/usr/share/arduino/hardware/arduino'
p432
sS'bootloader'
p433
(dp434
S'extended_fuses'
p435
S'0xf8'
p436
sS'high_fuses'
p437
S'0xdd'
p438
sS'low_fuses'
p439
S'0xff'
p440
sS'lock_bits'
p441
S'0xcf'
p442
sS'file'
p443
S'ATmegaBOOT_168_diecimila.hex'
p444
sS'path'
p445
S'atmega'
p446
sS'unlock_bits'
p447
S'0xff'
p448
ssS'build'
p449
(dp450
S'core'
p451
S'arduino'
p452
sS'mcu'
p453
S'atmega168'
p454
sS'f_cpu'
p455
S'16000000L'
p456
sS'variant'
p457
S'eightanaloginputs'
p458
ssS'name'
p459
S'Arduino Nano w/ ATmega168'
p460
sS'upload'
p461
(dp462
S'protocol'
p463
S'arduino'
p464
sS'maximum_size'
p465
S'14336'
p466
sS'speed'
p467
S'19200'
p468
ssaa(lp469
S'mega2560'
p470
a(dp471
g271
S'/usr/share/arduino/hardware/arduino'
p472
sS'bootloader'
p473
(dp474
S'extended_fuses'
p475
S'0xFD'
p476
sS'high_fuses'
p477
S'0xD8'
p478
sS'low_fuses'
p479
S'0xFF'
p480
sS'lock_bits'
p481
S'0xcf'
p482
sS'file'
p483
S'stk500boot_v2_mega2560.hex'
p484
sS'path'
p485
S'stk500v2'
p486
sS'unlock_bits'
p487
S'0xff'
p488
ssS'build'
p489
(dp490
S'core'
p491
S'arduino'
p492
sS'mcu'
p493
S'atmega2560'
p494
sS'f_cpu'
p495
S'16000000L'
p496
sS'variant'
p497
S'mega'
p498
ssS'name'
p499
S'Arduino Mega 2560 or Mega ADK'
p500
sS'upload'
p501
(dp502
S'protocol'
p503
S'wiring'
p504
sS'maximum_size'
p505
S'258048'
p506
sS'speed'
p507
S'115200'
p508
ssaa(lp509
S'mega'
p510
a(dp511
g271
S'/usr/share/arduino/hardware/arduino'
p512
sS'bootloader'
p513
(dp514
S'extended_fuses'
p515
S'0xF5'
p516
sS'high_fuses'
p517
S'0xDA'
p518
sS'low_fuses'
p519
S'0xFF'
p520
sS'lock_bits'
p521
S'0xcf'
p522
sS'file'
p523
S'ATmegaBOOT_168_atmega1280.hex'
p524
sS'path'
p525
S'atmega'
p526
sS'unlock_bits'
p527
S'0xff'
p528
ssS'build'
p529
(dp530
S'core'
p531
S'arduino'
p532
sS'mcu'
p533
S'atmega1280'
p534
sS'f_cpu'
p535
S'16000000L'
p536
sS'variant'
p537
S'mega'
p538
ssS'name'
p539
S'Arduino Mega (ATmega1280)'
p540
sS'upload'
p541
(dp542
S'protocol'
p543
S'arduino'
p544
sS'maximum_size'
p545
S'126976'
p546
sS'speed'
p547
S'57600'
p548
ssaa(lp549
S'leonardo'
p550
a(dp551
g271
S'/usr/share/arduino/hardware/arduino'
p552
sS'bootloader'
p553
(dp554
S'extended_fuses'
p555
S'0xcb'
p556
sS'high_fuses'
p557
S'0xd8'
p558
sS'low_fuses'
p559
S'0xff'
p560
sS'lock_bits'
p561
S'0xef'
p562
sS'file'
p563
S'Caterina-Leonardo.hex'
p564
sS'path'
p565
S'caterina'
p566
sS'unlock_bits'
p567
S'0xff'
p568
ssS'build'
p569
(dp570
S'core'
p571
S'arduino'
p572
sS'f_cpu'
p573
S'16000000L'
p574
sS'vid'
p575
S'0x2341'
p576
sS'pid'
p577
S'0x8036'
p578
sS'variant'
p579
S'leonardo'
p580
sS'mcu'
p581
S'atmega32u4'
p582
ssS'name'
p583
S'Arduino Leonardo'
p584
sS'upload'
p585
(dp586
S'protocol'
p587
S'avr109'
p588
sS'maximum_size'
p589
S'28672'
p590
sS'speed'
p591
S'57600'
p592
sS'disable_flushing'
p593
S'true'
p594
ssaa(lp595
S'esplora'
p596
a(dp597
g271
S'/usr/share/arduino/hardware/arduino'
p598
sS'bootloader'
p599
(dp600
S'extended_fuses'
p601
S'0xcb'
p602
sS'high_fuses'
p603
S'0xd8'
p604
sS'low_fuses'
p605
S'0xff'
p606
sS'lock_bits'
p607
S'0xef'
p608
sS'file'
p609
S'Caterina-Esplora.hex'
p610
sS'path'
p611
S'caterina'
p612
sS'unlock_bits'
p613
S'0xff'
p614
ssS'build'
p615
(dp616
S'core'
p617
S'arduino'
p618
sS'f_cpu'
p619
S'16000000L'
p620
sS'vid'
p621
S'0x2341'
p622
sS'pid'
p623
S'0x803C'
p624
sS'variant'
p625
S'leonardo'
p626
sS'mcu'
p627
S'atmega32u4'
p628
ssS'name'
p629
S'Arduino Esplora'
p630
sS'upload'
p631
(dp632
S'protocol'
p633
S'avr109'
p634
sS'maximum_size'
p635
S'28672'
p636
sS'speed'
p637
S'57600'
p638
sS'disable_flushing'
p639
S'true'
p640
ssaa(lp641
S'micro'
p642
a(dp643
g271
S'/usr/share/arduino/hardware/arduino'
p644
sS'bootloader'
p645
(dp646
S'extended_fuses'
p647
S'0xcb'
p648
sS'high_fuses'
p649
S'0xd8'
p650
sS'low_fuses'
p651
S'0xff'
p652
sS'lock_bits'
p653
S'0xef'
p654
sS'file'
p655
S'Caterina-Micro.hex'
p656
sS'path'
p657
S'caterina'
p658
sS'unlock_bits'
p659
S'0xff'
p660
ssS'build'
p661
(dp662
S'core'
p663
S'arduino'
p664
sS'f_cpu'
p665
S'16000000L'
p666
sS'vid'
p667
S'0x2341'
p668
sS'pid'
p669
S'0x8037'
p670
sS'variant'
p671
S'micro'
p672
sS'mcu'
p673
S'atmega32u4'
p674
ssS'name'
p675
S'Arduino Micro'
p676
sS'upload'
p677
(dp678
S'protocol'
p679
S'avr109'
p680
sS'maximum_size'
p681
S'28672'
p682
sS'speed'
p683
S'57600'
p684
sS'disable_flushing'
p685
S'true'
p686
ssaa(lp687
S'mini328'
p688
a(dp689
g271
S'/usr/share/arduino/hardware/arduino'
p690
sS'bootloader'
p691
(dp692
S'extended_fuses'
p693
S'0xfd'
p694
sS'high_fuses'
p695
S'0xd8'
p696
sS'low_fuses'
p697
S'0xff'
p698
sS'lock_bits'
p699
S'0xcf'
p700
sS'file'
p701
S'optiboot_atmega328-Mini.hex'
p702
sS'path'
p703
S'optiboot'
p704
sS'unlock_bits'
p705
S'0xff'
p706
ssS'build'
p707
(dp708
S'core'
p709
S'arduino'
p710
sS'mcu'
p711
S'atmega328p'
p712
sS'f_cpu'
p713
S'16000000L'
p714
sS'variant'
p715
S'eightanaloginputs'
p716
ssS'name'
p717
S'Arduino Mini w/ ATmega328'
p718
sS'upload'
p719
(dp720
S'protocol'
p721
S'arduino'
p722
sS'maximum_size'
p723
S'28672'
p724
sS'speed'
p725
S'115200'
p726
ssaa(lp727
S'mini'
p728
a(dp729
g271
S'/usr/share/arduino/hardware/arduino'
p730
sS'bootloader'
p731
(dp732
S'extended_fuses'
p733
S'0xf8'
p734
sS'high_fuses'
p735
S'0xdd'
p736
sS'low_fuses'
p737
S'0xff'
p738
sS'lock_bits'
p739
S'0xcf'
p740
sS'file'
p741
S'ATmegaBOOT_168_ng.hex'
p742
sS'path'
p743
S'atmega'
p744
sS'unlock_bits'
p745
S'0xff'
p746
ssS'build'
p747
(dp748
S'core'
p749
S'arduino'
p750
sS'mcu'
p751
S'atmega168'
p752
sS'f_cpu'
p753
S'16000000L'
p754
sS'variant'
p755
S'eightanaloginputs'
p756
ssS'name'
p757
S'Arduino Mini w/ ATmega168'
p758
sS'upload'
p759
(dp760
S'protocol'
p761
S'arduino'
p762
sS'maximum_size'
p763
S'14336'
p764
sS'speed'
p765
S'19200'
p766
ssaa(lp767
S'ethernet'
p768
a(dp769
g271
S'/usr/share/arduino/hardware/arduino'
p770
sS'bootloader'
p771
(dp772
S'extended_fuses'
p773
S'0xfd'
p774
sS'high_fuses'
p775
S'0xde'
p776
sS'low_fuses'
p777
S'0xff'
p778
sS'lock_bits'
p779
S'0xcf'
p780
sS'file'
p781
S'optiboot_atmega328.hex'
p782
sS'path'
p783
S'optiboot'
p784
sS'unlock_bits'
p785
S'0xff'
p786
ssS'build'
p787
(dp788
S'variant'
p789
S'standard'
p790
sS'mcu'
p791
S'atmega328p'
p792
sS'f_cpu'
p793
S'16000000L'
p794
sS'core'
p795
S'arduino'
p796
ssS'name'
p797
S'Arduino Ethernet'
p798
sS'upload'
p799
(dp800
S'protocol'
p801
S'arduino'
p802
sS'maximum_size'
p803
S'32256'
p804
sS'speed'
p805
S'115200'
p806
ssaa(lp807
S'fio'
p808
a(dp809
g271
S'/usr/share/arduino/hardware/arduino'
p810
sS'bootloader'
p811
(dp812
S'extended_fuses'
p813
S'0xfd'
p814
sS'high_fuses'
p815
S'0xDA'
p816
sS'low_fuses'
p817
S'0xFF'
p818
sS'lock_bits'
p819
S'0xcf'
p820
sS'file'
p821
S'ATmegaBOOT_168_atmega328_pro_8MHz.hex'
p822
sS'path'
p823
S'arduino:atmega'
p824
sS'unlock_bits'
p825
S'0xff'
p826
ssS'build'
p827
(dp828
S'core'
p829
S'arduino'
p830
sS'mcu'
p831
S'atmega328p'
p832
sS'f_cpu'
p833
S'8000000L'
p834
sS'variant'
p835
S'eightanaloginputs'
p836
ssS'name'
p837
S'Arduino Fio'
p838
sS'upload'
p839
(dp840
S'protocol'
p841
S'arduino'
p842
sS'maximum_size'
p843
S'30720'
p844
sS'speed'
p845
S'57600'
p846
ssaa(lp847
S'bt328'
p848
a(dp849
g271
S'/usr/share/arduino/hardware/arduino'
p850
sS'bootloader'
p851
(dp852
S'extended_fuses'
p853
S'0xfd'
p854
sS'high_fuses'
p855
S'0xd8'
p856
sS'low_fuses'
p857
S'0xff'
p858
sS'lock_bits'
p859
S'0xcf'
p860
sS'file'
p861
S'ATmegaBOOT_168_atmega328_bt.hex'
p862
sS'path'
p863
S'bt'
p864
sS'unlock_bits'
p865
S'0xff'
p866
ssS'build'
p867
(dp868
S'core'
p869
S'arduino'
p870
sS'mcu'
p871
S'atmega328p'
p872
sS'f_cpu'
p873
S'16000000L'
p874
sS'variant'
p875
S'eightanaloginputs'
p876
ssS'name'
p877
S'Arduino BT w/ ATmega328'
p878
sS'upload'
p879
(dp880
S'protocol'
p881
S'arduino'
p882
sS'maximum_size'
p883
S'28672'
p884
sS'speed'
p885
S'19200'
p886
sS'disable_flushing'
p887
S'true'
p888
ssaa(lp889
S'bt'
p890
a(dp891
g271
S'/usr/share/arduino/hardware/arduino'
p892
sS'bootloader'
p893
(dp894
S'extended_fuses'
p895
S'0xf8'
p896
sS'high_fuses'
p897
S'0xdd'
p898
sS'low_fuses'
p899
S'0xff'
p900
sS'lock_bits'
p901
S'0xcf'
p902
sS'file'
p903
S'ATmegaBOOT_168.hex'
p904
sS'path'
p905
S'bt'
p906
sS'unlock_bits'
p907
S'0xff'
p908
ssS'build'
p909
(dp910
S'core'
p911
S'arduino'
p912
sS'mcu'
p913
S'atmega168'
p914
sS'f_cpu'
p915
S'16000000L'
p916
sS'variant'
p917
S'eightanaloginputs'
p918
ssS'name'
p919
S'Arduino BT w/ ATmega168'
p920
sS'upload'
p921
(dp922
S'protocol'
p923
S'arduino'
p924
sS'maximum_size'
p925
S'14336'
p926
sS'speed'
p927
S'19200'
p928
sS'disable_flushing'
p929
S'true'
p930
ssaa(lp931
S'LilyPadUSB'
p932
a(dp933
g271
S'/usr/share/arduino/hardware/arduino'
p934
sS'bootloader'
p935
(dp936
S'extended_fuses'
p937
S'0xce'
p938
sS'high_fuses'
p939
S'0xd8'
p940
sS'low_fuses'
p941
S'0xff'
p942
sS'lock_bits'
p943
S'0xef'
p944
sS'file'
p945
S'Caterina-LilyPadUSB.hex'
p946
sS'path'
p947
S'caterina-LilyPadUSB'
p948
sS'unlock_bits'
p949
S'0xff'
p950
ssS'build'
p951
(dp952
S'core'
p953
S'arduino'
p954
sS'f_cpu'
p955
S'8000000L'
p956
sS'vid'
p957
S'0x1B4F'
p958
sS'pid'
p959
S'0x9208'
p960
sS'variant'
p961
S'leonardo'
p962
sS'mcu'
p963
S'atmega32u4'
p964
ssS'name'
p965
S'LilyPad Arduino USB'
p966
sS'upload'
p967
(dp968
S'protocol'
p969
S'avr109'
p970
sS'maximum_size'
p971
S'28672'
p972
sS'speed'
p973
S'57600'
p974
sS'disable_flushing'
p975
S'true'
p976
ssaa(lp977
S'lilypad328'
p978
a(dp979
g271
S'/usr/share/arduino/hardware/arduino'
p980
sS'bootloader'
p981
(dp982
S'extended_fuses'
p983
S'0xfd'
p984
sS'high_fuses'
p985
S'0xDA'
p986
sS'low_fuses'
p987
S'0xFF'
p988
sS'lock_bits'
p989
S'0xcf'
p990
sS'file'
p991
S'ATmegaBOOT_168_atmega328_pro_8MHz.hex'
p992
sS'path'
p993
S'atmega'
p994
sS'unlock_bits'
p995
S'0xff'
p996
ssS'build'
p997
(dp998
S'core'
p999
S'arduino'
p1000
sS'mcu'
p1001
S'atmega328p'
p1002
sS'f_cpu'
p1003
S'8000000L'
p1004
sS'variant'
p1005
S'standard'
p1006
ssS'name'
p1007
S'LilyPad Arduino w/ ATmega328'
p1008
sS'upload'
p1009
(dp1010
S'protocol'
p1011
S'arduino'
p1012
sS'maximum_size'
p1013
S'30720'
p1014
sS'speed'
p1015
S'57600'
p1016
ssaa(lp1017
S'lilypad'
p1018
a(dp1019
g271
S'/usr/share/arduino/hardware/arduino'
p1020
sS'bootloader'
p1021
(dp1022
S'extended_fuses'
p1023
S'0xf8'
p1024
sS'high_fuses'
p1025
S'0xdd'
p1026
sS'low_fuses'
p1027
S'0xe2'
p1028
sS'lock_bits'
p1029
S'0xcf'
p1030
sS'file'
p1031
S'LilyPadBOOT_168.hex'
p1032
sS'path'
p1033
S'lilypad'
p1034
sS'unlock_bits'
p1035
S'0xff'
p1036
ssS'build'
p1037
(dp1038
S'core'
p1039
S'arduino'
p1040
sS'mcu'
p1041
S'atmega168'
p1042
sS'f_cpu'
p1043
S'8000000L'
p1044
sS'variant'
p1045
S'standard'
p1046
ssS'name'
p1047
S'LilyPad Arduino w/ ATmega168'
p1048
sS'upload'
p1049
(dp1050
S'protocol'
p1051
S'arduino'
p1052
sS'maximum_size'
p1053
S'14336'
p1054
sS'speed'
p1055
S'19200'
p1056
ssaa(lp1057
S'pro5v328'
p1058
a(dp1059
g271
S'/usr/share/arduino/hardware/arduino'
p1060
sS'bootloader'
p1061
(dp1062
S'extended_fuses'
p1063
S'0xfd'
p1064
sS'high_fuses'
p1065
S'0xDA'
p1066
sS'low_fuses'
p1067
S'0xFF'
p1068
sS'lock_bits'
p1069
S'0xcf'
p1070
sS'file'
p1071
S'ATmegaBOOT_168_atmega328.hex'
p1072
sS'path'
p1073
S'atmega'
p1074
sS'unlock_bits'
p1075
S'0xff'
p1076
ssS'build'
p1077
(dp1078
S'core'
p1079
S'arduino'
p1080
sS'mcu'
p1081
S'atmega328p'
p1082
sS'f_cpu'
p1083
S'16000000L'
p1084
sS'variant'
p1085
S'standard'
p1086
ssS'name'
p1087
S'Arduino Pro or Pro Mini (5V, 16 MHz) w/ ATmega328'
p1088
sS'upload'
p1089
(dp1090
S'protocol'
p1091
S'arduino'
p1092
sS'maximum_size'
p1093
S'30720'
p1094
sS'speed'
p1095
S'57600'
p1096
ssaa(lp1097
S'pro5v'
p1098
a(dp1099
g271
S'/usr/share/arduino/hardware/arduino'
p1100
sS'bootloader'
p1101
(dp1102
S'extended_fuses'
p1103
S'0xf8'
p1104
sS'high_fuses'
p1105
S'0xdd'
p1106
sS'low_fuses'
p1107
S'0xff'
p1108
sS'lock_bits'
p1109
S'0xcf'
p1110
sS'file'
p1111
S'ATmegaBOOT_168_diecimila.hex'
p1112
sS'path'
p1113
S'atmega'
p1114
sS'unlock_bits'
p1115
S'0xff'
p1116
ssS'build'
p1117
(dp1118
S'core'
p1119
S'arduino'
p1120
sS'mcu'
p1121
S'atmega168'
p1122
sS'f_cpu'
p1123
S'16000000L'
p1124
sS'variant'
p1125
S'standard'
p1126
ssS'name'
p1127
S'Arduino Pro or Pro Mini (5V, 16 MHz) w/ ATmega168'
p1128
sS'upload'
p1129
(dp1130
S'protocol'
p1131
S'arduino'
p1132
sS'maximum_size'
p1133
S'14336'
p1134
sS'speed'
p1135
S'19200'
p1136
ssaa(lp1137
S'pro328'
p1138
a(dp1139
g271
S'/usr/share/arduino/hardware/arduino'
p1140
sS'bootloader'
p1141
(dp1142
S'extended_fuses'
p1143
S'0xfd'
p1144
sS'high_fuses'
p1145
S'0xDA'
p1146
sS'low_fuses'
p1147
S'0xFF'
p1148
sS'lock_bits'
p1149
S'0xcf'
p1150
sS'file'
p1151
S'ATmegaBOOT_168_atmega328_pro_8MHz.hex'
p1152
sS'path'
p1153
S'atmega'
p1154
sS'unlock_bits'
p1155
S'0xff'
p1156
ssS'build'
p1157
(dp1158
S'core'
p1159
S'arduino'
p1160
sS'mcu'
p1161
S'atmega328p'
p1162
sS'f_cpu'
p1163
S'8000000L'
p1164
sS'variant'
p1165
S'standard'
p1166
ssS'name'
p1167
S'Arduino Pro or Pro Mini (3.3V, 8 MHz) w/ ATmega328'
p1168
sS'upload'
p1169
(dp1170
S'protocol'
p1171
S'arduino'
p1172
sS'maximum_size'
p1173
S'30720'
p1174
sS'speed'
p1175
S'57600'
p1176
ssaa(lp1177
S'pro'
p1178
a(dp1179
g271
S'/usr/share/arduino/hardware/arduino'
p1180
sS'bootloader'
p1181
(dp1182
S'extended_fuses'
p1183
S'0xf8'
p1184
sS'high_fuses'
p1185
S'0xdd'
p1186
sS'low_fuses'
p1187
S'0xc6'
p1188
sS'lock_bits'
p1189
S'0xcf'
p1190
sS'file'
p1191
S'ATmegaBOOT_168_pro_8MHz.hex'
p1192
sS'path'
p1193
S'atmega'
p1194
sS'unlock_bits'
p1195
S'0xff'
p1196
ssS'build'
p1197
(dp1198
S'core'
p1199
S'arduino'
p1200
sS'mcu'
p1201
S'atmega168'
p1202
sS'f_cpu'
p1203
S'8000000L'
p1204
sS'variant'
p1205
S'standard'
p1206
ssS'name'
p1207
S'Arduino Pro or Pro Mini (3.3V, 8 MHz) w/ ATmega168'
p1208
sS'upload'
p1209
(dp1210
S'protocol'
p1211
S'arduino'
p1212
sS'maximum_size'
p1213
S'14336'
p1214
sS'speed'
p1215
S'19200'
p1216
ssaa(lp1217
S'atmega168'
p1218
a(dp1219
g271
S'/usr/share/arduino/hardware/arduino'
p1220
sS'bootloader'
p1221
(dp1222
S'extended_fuses'
p1223
S'0xf8'
p1224
sS'high_fuses'
p1225
S'0xdd'
p1226
sS'low_fuses'
p1227
S'0xff'
p1228
sS'lock_bits'
p1229
S'0xcf'
p1230
sS'file'
p1231
S'ATmegaBOOT_168_ng.hex'
p1232
sS'path'
p1233
S'atmega'
p1234
sS'unlock_bits'
p1235
S'0xff'
p1236
ssS'build'
p1237
(dp1238
S'core'
p1239
S'arduino'
p1240
sS'mcu'
p1241
S'atmega168'
p1242
sS'f_cpu'
p1243
S'16000000L'
p1244
sS'variant'
p1245
S'standard'
p1246
ssS'name'
p1247
S'Arduino NG or older w/ ATmega168'
p1248
sS'upload'
p1249
(dp1250
S'protocol'
p1251
S'arduino'
p1252
sS'maximum_size'
p1253
S'14336'
p1254
sS'speed'
p1255
S'19200'
p1256
ssaa(lp1257
S'atmega8'
p1258
a(dp1259
g271
S'/usr/share/arduino/hardware/arduino'
p1260
sS'bootloader'
p1261
(dp1262
S'high_fuses'
p1263
S'0xca'
p1264
sS'low_fuses'
p1265
S'0xdf'
p1266
sS'lock_bits'
p1267
S'0xcf'
p1268
sS'file'
p1269
S'ATmegaBOOT-prod-firmware-2009-11-07.hex'
p1270
sS'path'
p1271
S'atmega8'
p1272
sS'unlock_bits'
p1273
S'0xff'
p1274
ssS'build'
p1275
(dp1276
S'core'
p1277
S'arduino'
p1278
sS'mcu'
p1279
S'atmega8'
p1280
sS'f_cpu'
p1281
S'16000000L'
p1282
sS'variant'
p1283
S'standard'
p1284
ssS'name'
p1285
S'Arduino NG or older w/ ATmega8'
p1286
sS'upload'
p1287
(dp1288
S'protocol'
p1289
S'arduino'
p1290
sS'maximum_size'
p1291
S'7168'
p1292
sS'speed'
p1293
S'19200'
p1294
ssaa(lp1295
S'robotControl'
p1296
a(dp1297
g271
S'/usr/share/arduino/hardware/arduino'
p1298
sS'bootloader'
p1299
(dp1300
S'extended_fuses'
p1301
S'0xcb'
p1302
sS'high_fuses'
p1303
S'0xd8'
p1304
sS'low_fuses'
p1305
S'0xff'
p1306
sS'lock_bits'
p1307
S'0xef'
p1308
sS'file'
p1309
S'Caterina-Robot-Control.hex'
p1310
sS'path'
p1311
S'caterina-Arduino_Robot'
p1312
sS'unlock_bits'
p1313
S'0xff'
p1314
ssS'build'
p1315
(dp1316
S'core'
p1317
S'robot'
p1318
sS'f_cpu'
p1319
S'16000000L'
p1320
sS'vid'
p1321
S'0x2341'
p1322
sS'pid'
p1323
S'0x8038'
p1324
sS'variant'
p1325
S'robot_control'
p1326
sS'mcu'
p1327
S'atmega32u4'
p1328
ssS'name'
p1329
S'Arduino Robot Control'
p1330
sS'upload'
p1331
(dp1332
S'protocol'
p1333
S'avr109'
p1334
sS'maximum_size'
p1335
S'28672'
p1336
sS'speed'
p1337
S'57600'
p1338
sS'disable_flushing'
p1339
S'true'
p1340
ssaa(lp1341
S'robotMotor'
p1342
a(dp1343
g271
S'/usr/share/arduino/hardware/arduino'
p1344
sS'bootloader'
p1345
(dp1346
S'extended_fuses'
p1347
S'0xcb'
p1348
sS'high_fuses'
p1349
S'0xd8'
p1350
sS'low_fuses'
p1351
S'0xff'
p1352
sS'lock_bits'
p1353
S'0xef'
p1354
sS'file'
p1355
S'Caterina-Robot-Motor.hex'
p1356
sS'path'
p1357
S'caterina-Arduino_Robot'
p1358
sS'unlock_bits'
p1359
S'0xff'
p1360
ssS'build'
p1361
(dp1362
S'core'
p1363
S'robot'
p1364
sS'f_cpu'
p1365
S'16000000L'
p1366
sS'vid'
p1367
S'0x2341'
p1368
sS'pid'
p1369
S'0x8039'
p1370
sS'variant'
p1371
S'robot_motor'
p1372
sS'mcu'
p1373
S'atmega32u4'
p1374
ssS'name'
p1375
S'Arduino Robot Motor'
p1376
sS'upload'
p1377
(dp1378
S'protocol'
p1379
S'avr109'
p1380
sS'maximum_size'
p1381
S'28672'
p1382
sS'speed'
p1383
S'57600'
p1384
sS'disable_flushing'
p1385
S'true'
p1386
ssaatp1387
Rp1388
(dp1389
S'default'
p1390
S'uno'
p1391
sbtp1392
a(S'used_libs'
p1393
(lp1394
S'lib/CmdMessenger'
p1395
aS'/usr/share/arduino/hardware/arduino/cores/arduino'
p1396
atp1397
a(S'make'
p1398
S'/usr/share/arduino/hardware/tools/avr/bin/make'
p1399
tp1400
a(S'build_dir'
p1401
S'.build/mega'
p1402
tp1403
a(S'cc'
p1404
S'/usr/share/arduino/hardware/tools/avr/bin/avr-gcc'
p1405
tp1406
a(S'cflags'
p1407
g2
(g3
g4
(lp1408
tp1409
Rp1410
tp1411
a(S'cxxflags'
p1412
g2
(g3
g4
(lp1413
S'-fno-exceptions'
p1414
atp1415
Rp1416
tp1417
a(S'arduino_variants_dir'
p1418
S'/usr/share/arduino/hardware/arduino/variants'
p1419
tp1420
a(S'serial'
p1421
S'/usr/bin/picocom'
p1422
tp1423
a(S'stty'
p1424
S'/bin/stty'
p1425
tp1426
a(S'version.txt'
p1427
S'/usr/share/arduino/lib/version.txt'
p1428
tp1429
a(S'arduino_core_dir'
p1430
g1396
tp1431
a(S'boards.txt'
p1432
(lp1433
S'/usr/share/arduino/hardware/arduino/boards.txt'
p1434
atp1435
a(S'avrdude.conf'
p1436
S'/usr/share/arduino/hardware/tools/avrdude.conf'
p1437
tp1438
a(S'deps'
p1439
g2
(g3
g4
(lp1440
S'.build/mega/src/dependencies.d'
p1441
aS'.build/mega/arduino/dependencies.d'
p1442
aS'.build/mega/CmdMessenger/dependencies.d'
p1443
atp1444
Rp1445
tp1446
a.